	.section	__TEXT,__text,regular,pure_instructions
	.macosx_version_min 10, 14
	.file	1 "/Library/Developer/CommandLineTools/usr/include/c++/v1/ios"
	.file	2 "/Users/gonglei/brettKK/llvm/build/lib/clang/10.0.0/include/stddef.h"
	.file	3 "/usr/include/i386/_types.h"
	.file	4 "/usr/include/sys/_types/_size_t.h"
	.file	5 "/Library/Developer/CommandLineTools/usr/include/c++/v1/__locale"
	.file	6 "/Library/Developer/CommandLineTools/usr/include/c++/v1/string"
	.file	7 "/Library/Developer/CommandLineTools/usr/include/c++/v1/memory"
	.file	8 "/Library/Developer/CommandLineTools/usr/include/c++/v1/type_traits"
	.file	9 "/Library/Developer/CommandLineTools/usr/include/c++/v1/initializer_list"
	.file	10 "/Library/Developer/CommandLineTools/usr/include/c++/v1/string_view"
	.file	11 "/Library/Developer/CommandLineTools/usr/include/c++/v1/__string"
	.file	12 "/Library/Developer/CommandLineTools/usr/include/c++/v1/iosfwd"
	.file	13 "/Library/Developer/CommandLineTools/usr/include/c++/v1/mutex"
	.file	14 "/usr/include/sys/_types/_int32_t.h"
	.file	15 "/Library/Developer/CommandLineTools/usr/include/c++/v1/iterator"
	.file	16 "/Library/Developer/CommandLineTools/usr/include/c++/v1/streambuf"
	.file	17 "/Library/Developer/CommandLineTools/usr/include/c++/v1/ostream"
	.file	18 "/Library/Developer/CommandLineTools/usr/include/c++/v1/cstddef"
	.file	19 "/Users/gonglei/brettKK/llvm/build/lib/clang/10.0.0/include/__stddef_max_align_t.h"
	.file	20 "/Library/Developer/CommandLineTools/usr/include/c++/v1/cstring"
	.file	21 "/usr/include/string.h"
	.file	22 "/Library/Developer/CommandLineTools/usr/include/c++/v1/string.h"
	.file	23 "/usr/include/sys/_types/_int8_t.h"
	.file	24 "/Library/Developer/CommandLineTools/usr/include/c++/v1/cstdint"
	.file	25 "/usr/include/sys/_types/_int16_t.h"
	.file	26 "/usr/include/sys/_types/_int64_t.h"
	.file	27 "/usr/include/_types/_uint8_t.h"
	.file	28 "/usr/include/_types/_uint16_t.h"
	.file	29 "/usr/include/_types/_uint32_t.h"
	.file	30 "/usr/include/_types/_uint64_t.h"
	.file	31 "/usr/include/stdint.h"
	.file	32 "/usr/include/sys/_types/_intptr_t.h"
	.file	33 "/usr/include/sys/_types/_uintptr_t.h"
	.file	34 "/usr/include/_types/_intmax_t.h"
	.file	35 "/usr/include/_types/_uintmax_t.h"
	.file	36 "/Library/Developer/CommandLineTools/usr/include/c++/v1/cstdlib"
	.file	37 "/usr/include/stdlib.h"
	.file	38 "/usr/include/malloc/_malloc.h"
	.file	39 "/Library/Developer/CommandLineTools/usr/include/c++/v1/stdlib.h"
	.file	40 "/usr/include/_stdio.h"
	.file	41 "/usr/include/sys/_types.h"
	.file	42 "/Library/Developer/CommandLineTools/usr/include/c++/v1/cstdio"
	.file	43 "/usr/include/stdio.h"
	.file	44 "/usr/include/_ctype.h"
	.file	45 "/Library/Developer/CommandLineTools/usr/include/c++/v1/cctype"
	.file	46 "/usr/include/sys/_types/_wint_t.h"
	.file	47 "/Library/Developer/CommandLineTools/usr/include/c++/v1/cwctype"
	.file	48 "/usr/include/_types.h"
	.file	49 "/usr/include/_types/_wctrans_t.h"
	.file	50 "/usr/include/_types/_wctype_t.h"
	.file	51 "/usr/include/_wctype.h"
	.file	52 "/usr/include/wctype.h"
	.file	53 "/usr/include/sys/_types/_mbstate_t.h"
	.file	54 "/Library/Developer/CommandLineTools/usr/include/c++/v1/cwchar"
	.file	55 "/usr/include/time.h"
	.file	56 "/usr/include/wchar.h"
	.file	57 "/Library/Developer/CommandLineTools/usr/include/c++/v1/wchar.h"
	.file	58 "/usr/include/sys/_types/_clock_t.h"
	.file	59 "/Library/Developer/CommandLineTools/usr/include/c++/v1/ctime"
	.file	60 "/usr/include/sys/_types/_time_t.h"
	.file	61 "/Library/Developer/CommandLineTools/usr/include/c++/v1/chrono"
	.file	62 "/Users/gonglei/brettKK/shell/c++/Example_code/test_str.cpp"
	.globl	_main                   ## -- Begin function main
	.p2align	4, 0x90
_main:                                  ## @main
Lfunc_begin0:
	.loc	62 6 0                  ## test_str.cpp:6:0
	.cfi_startproc
	.cfi_personality 155, ___gxx_personality_v0
	.cfi_lsda 16, Lexception0
## %bb.0:                               ## %entry
	pushq	%rbp
	.cfi_def_cfa_offset 16
	.cfi_offset %rbp, -16
	movq	%rsp, %rbp
	.cfi_def_cfa_register %rbp
	subq	$80, %rsp
	movl	$0, -4(%rbp)
Ltmp11:
	.loc	62 7 15 prologue_end    ## test_str.cpp:7:15
	leaq	L_.str(%rip), %rsi
	leaq	-32(%rbp), %rax
	movq	%rax, %rdi
	movq	%rax, -56(%rbp)         ## 8-byte Spill
	callq	__ZNSt3__112basic_stringIcNS_11char_traitsIcEENS_9allocatorIcEEEC1IDnEEPKc
Ltmp0:
	.loc	62 8 7                  ## test_str.cpp:8:7
	movq	__ZNSt3__14coutE@GOTPCREL(%rip), %rdi
	movq	-56(%rbp), %rsi         ## 8-byte Reload
	callq	__ZNSt3__1lsIcNS_11char_traitsIcEENS_9allocatorIcEEEERNS_13basic_ostreamIT_T0_EES9_RKNS_12basic_stringIS6_S7_T1_EE
Ltmp1:
	movq	%rax, -64(%rbp)         ## 8-byte Spill
	jmp	LBB0_1
LBB0_1:                                 ## %invoke.cont
Ltmp2:
	.loc	62 8 14 is_stmt 0       ## test_str.cpp:8:14
	leaq	__ZNSt3__1L4endlIcNS_11char_traitsIcEEEERNS_13basic_ostreamIT_T0_EES7_(%rip), %rsi
	movq	-64(%rbp), %rdi         ## 8-byte Reload
	callq	__ZNSt3__113basic_ostreamIcNS_11char_traitsIcEEElsEPFRS3_S4_E
Ltmp3:
	jmp	LBB0_2
LBB0_2:                                 ## %invoke.cont1
Ltmp4:
	.loc	62 9 7 is_stmt 1        ## test_str.cpp:9:7
	movq	__ZNSt3__14coutE@GOTPCREL(%rip), %rdi
	leaq	L_.str.1(%rip), %rsi
	callq	__ZNSt3__1lsINS_11char_traitsIcEEEERNS_13basic_ostreamIcT_EES6_PKc
Ltmp5:
	movq	%rax, -72(%rbp)         ## 8-byte Spill
	jmp	LBB0_3
LBB0_3:                                 ## %invoke.cont3
	.loc	62 0 7 is_stmt 0        ## test_str.cpp:0:7
	leaq	-32(%rbp), %rdi
	.loc	62 9 31                 ## test_str.cpp:9:31
	callq	__ZNKSt3__112basic_stringIcNS_11char_traitsIcEENS_9allocatorIcEEE4sizeEv
Ltmp6:
	movq	-72(%rbp), %rdi         ## 8-byte Reload
	.loc	62 9 24                 ## test_str.cpp:9:24
	movq	%rax, %rsi
	callq	__ZNSt3__113basic_ostreamIcNS_11char_traitsIcEEElsEm
Ltmp7:
	movq	%rax, -80(%rbp)         ## 8-byte Spill
	jmp	LBB0_4
LBB0_4:                                 ## %invoke.cont6
Ltmp8:
	.loc	62 9 38                 ## test_str.cpp:9:38
	leaq	__ZNSt3__1L4endlIcNS_11char_traitsIcEEEERNS_13basic_ostreamIT_T0_EES7_(%rip), %rsi
	movq	-80(%rbp), %rdi         ## 8-byte Reload
	callq	__ZNSt3__113basic_ostreamIcNS_11char_traitsIcEEElsEPFRS3_S4_E
Ltmp9:
	jmp	LBB0_5
LBB0_5:                                 ## %invoke.cont8
	.loc	62 10 2 is_stmt 1       ## test_str.cpp:10:2
	movl	$0, -4(%rbp)
	.loc	62 11 1                 ## test_str.cpp:11:1
	leaq	-32(%rbp), %rdi
	callq	__ZNSt3__112basic_stringIcNS_11char_traitsIcEENS_9allocatorIcEEED1Ev
	movl	-4(%rbp), %eax
	addq	$80, %rsp
	popq	%rbp
	retq
LBB0_6:                                 ## %lpad
Ltmp10:
                                        ## kill: def $edx killed $edx killed $rdx
	movq	%rax, -40(%rbp)
	movl	%edx, -44(%rbp)
	leaq	-32(%rbp), %rdi
	callq	__ZNSt3__112basic_stringIcNS_11char_traitsIcEENS_9allocatorIcEEED1Ev
## %bb.7:                               ## %eh.resume
	movq	-40(%rbp), %rdi
	callq	__Unwind_Resume
	ud2
Ltmp12:
Lfunc_end0:
	.cfi_endproc
	.section	__TEXT,__gcc_except_tab
	.p2align	2
GCC_except_table0:
Lexception0:
	.byte	255                     ## @LPStart Encoding = omit
	.byte	255                     ## @TType Encoding = omit
	.byte	1                       ## Call site Encoding = uleb128
	.uleb128 Lcst_end0-Lcst_begin0
Lcst_begin0:
	.uleb128 Lfunc_begin0-Lfunc_begin0 ## >> Call Site 1 <<
	.uleb128 Ltmp0-Lfunc_begin0     ##   Call between Lfunc_begin0 and Ltmp0
	.byte	0                       ##     has no landing pad
	.byte	0                       ##   On action: cleanup
	.uleb128 Ltmp0-Lfunc_begin0     ## >> Call Site 2 <<
	.uleb128 Ltmp9-Ltmp0            ##   Call between Ltmp0 and Ltmp9
	.uleb128 Ltmp10-Lfunc_begin0    ##     jumps to Ltmp10
	.byte	0                       ##   On action: cleanup
	.uleb128 Ltmp9-Lfunc_begin0     ## >> Call Site 3 <<
	.uleb128 Lfunc_end0-Ltmp9       ##   Call between Ltmp9 and Lfunc_end0
	.byte	0                       ##     has no landing pad
	.byte	0                       ##   On action: cleanup
Lcst_end0:
	.p2align	2
                                        ## -- End function
	.section	__TEXT,__text,regular,pure_instructions
	.p2align	4, 0x90         ## -- Begin function _ZNSt3__112basic_stringIcNS_11char_traitsIcEENS_9allocatorIcEEEC1IDnEEPKc
__ZNSt3__112basic_stringIcNS_11char_traitsIcEENS_9allocatorIcEEEC1IDnEEPKc: ## @_ZNSt3__112basic_stringIcNS_11char_traitsIcEENS_9allocatorIcEEEC1IDnEEPKc
Lfunc_begin1:
	.loc	6 811 0                 ## /Library/Developer/CommandLineTools/usr/include/c++/v1/string:811:0
	.cfi_startproc
## %bb.0:                               ## %entry
	pushq	%rbp
	.cfi_def_cfa_offset 16
	.cfi_offset %rbp, -16
	movq	%rsp, %rbp
	.cfi_def_cfa_register %rbp
	subq	$16, %rsp
	movq	%rdi, -8(%rbp)
	movq	%rsi, -16(%rbp)
	movq	-8(%rbp), %rdi
Ltmp13:
	.loc	6 811 37 prologue_end   ## /Library/Developer/CommandLineTools/usr/include/c++/v1/string:811:37
	movq	-16(%rbp), %rsi
	callq	__ZNSt3__112basic_stringIcNS_11char_traitsIcEENS_9allocatorIcEEEC2IDnEEPKc
	.loc	6 817 5                 ## /Library/Developer/CommandLineTools/usr/include/c++/v1/string:817:5
	addq	$16, %rsp
	popq	%rbp
	retq
Ltmp14:
Lfunc_end1:
	.cfi_endproc
                                        ## -- End function
	.globl	__ZNSt3__1lsIcNS_11char_traitsIcEENS_9allocatorIcEEEERNS_13basic_ostreamIT_T0_EES9_RKNS_12basic_stringIS6_S7_T1_EE ## -- Begin function _ZNSt3__1lsIcNS_11char_traitsIcEENS_9allocatorIcEEEERNS_13basic_ostreamIT_T0_EES9_RKNS_12basic_stringIS6_S7_T1_EE
	.weak_definition	__ZNSt3__1lsIcNS_11char_traitsIcEENS_9allocatorIcEEEERNS_13basic_ostreamIT_T0_EES9_RKNS_12basic_stringIS6_S7_T1_EE
	.p2align	4, 0x90
__ZNSt3__1lsIcNS_11char_traitsIcEENS_9allocatorIcEEEERNS_13basic_ostreamIT_T0_EES9_RKNS_12basic_stringIS6_S7_T1_EE: ## @_ZNSt3__1lsIcNS_11char_traitsIcEENS_9allocatorIcEEEERNS_13basic_ostreamIT_T0_EES9_RKNS_12basic_stringIS6_S7_T1_EE
Lfunc_begin2:
	.loc	17 1046 0               ## /Library/Developer/CommandLineTools/usr/include/c++/v1/ostream:1046:0
	.cfi_startproc
## %bb.0:                               ## %entry
	pushq	%rbp
	.cfi_def_cfa_offset 16
	.cfi_offset %rbp, -16
	movq	%rsp, %rbp
	.cfi_def_cfa_register %rbp
	subq	$32, %rsp
	movq	%rdi, -8(%rbp)
	movq	%rsi, -16(%rbp)
Ltmp15:
	.loc	17 1047 44 prologue_end ## /Library/Developer/CommandLineTools/usr/include/c++/v1/ostream:1047:44
	movq	-8(%rbp), %rdi
	.loc	17 1047 50 is_stmt 0    ## /Library/Developer/CommandLineTools/usr/include/c++/v1/ostream:1047:50
	movq	-16(%rbp), %rax
	movq	%rdi, -24(%rbp)         ## 8-byte Spill
	.loc	17 1047 56              ## /Library/Developer/CommandLineTools/usr/include/c++/v1/ostream:1047:56
	movq	%rax, %rdi
	callq	__ZNKSt3__112basic_stringIcNS_11char_traitsIcEENS_9allocatorIcEEE4dataEv
	.loc	17 1047 64              ## /Library/Developer/CommandLineTools/usr/include/c++/v1/ostream:1047:64
	movq	-16(%rbp), %rdi
	movq	%rax, -32(%rbp)         ## 8-byte Spill
	.loc	17 1047 70              ## /Library/Developer/CommandLineTools/usr/include/c++/v1/ostream:1047:70
	callq	__ZNKSt3__112basic_stringIcNS_11char_traitsIcEENS_9allocatorIcEEE4sizeEv
	movq	-24(%rbp), %rdi         ## 8-byte Reload
	movq	-32(%rbp), %rsi         ## 8-byte Reload
	.loc	17 1047 12              ## /Library/Developer/CommandLineTools/usr/include/c++/v1/ostream:1047:12
	movq	%rax, %rdx
	callq	__ZNSt3__124__put_character_sequenceIcNS_11char_traitsIcEEEERNS_13basic_ostreamIT_T0_EES7_PKS4_m
	.loc	17 1047 5               ## /Library/Developer/CommandLineTools/usr/include/c++/v1/ostream:1047:5
	addq	$32, %rsp
	popq	%rbp
	retq
Ltmp16:
Lfunc_end2:
	.cfi_endproc
                                        ## -- End function
	.p2align	4, 0x90         ## -- Begin function _ZNSt3__113basic_ostreamIcNS_11char_traitsIcEEElsEPFRS3_S4_E
__ZNSt3__113basic_ostreamIcNS_11char_traitsIcEEElsEPFRS3_S4_E: ## @_ZNSt3__113basic_ostreamIcNS_11char_traitsIcEEElsEPFRS3_S4_E
Lfunc_begin3:
	.loc	17 195 0 is_stmt 1      ## /Library/Developer/CommandLineTools/usr/include/c++/v1/ostream:195:0
	.cfi_startproc
## %bb.0:                               ## %entry
	pushq	%rbp
	.cfi_def_cfa_offset 16
	.cfi_offset %rbp, -16
	movq	%rsp, %rbp
	.cfi_def_cfa_register %rbp
	subq	$16, %rsp
	movq	%rdi, -8(%rbp)
	movq	%rsi, -16(%rbp)
	movq	-8(%rbp), %rdi
Ltmp17:
	.loc	17 195 14 prologue_end  ## /Library/Developer/CommandLineTools/usr/include/c++/v1/ostream:195:14
	callq	*-16(%rbp)
	.loc	17 195 7 is_stmt 0      ## /Library/Developer/CommandLineTools/usr/include/c++/v1/ostream:195:7
	addq	$16, %rsp
	popq	%rbp
	retq
Ltmp18:
Lfunc_end3:
	.cfi_endproc
                                        ## -- End function
	.p2align	4, 0x90         ## -- Begin function _ZNSt3__1L4endlIcNS_11char_traitsIcEEEERNS_13basic_ostreamIT_T0_EES7_
__ZNSt3__1L4endlIcNS_11char_traitsIcEEEERNS_13basic_ostreamIT_T0_EES7_: ## @_ZNSt3__1L4endlIcNS_11char_traitsIcEEEERNS_13basic_ostreamIT_T0_EES7_
Lfunc_begin4:
	.loc	17 1000 0 is_stmt 1     ## /Library/Developer/CommandLineTools/usr/include/c++/v1/ostream:1000:0
	.cfi_startproc
## %bb.0:                               ## %entry
	pushq	%rbp
	.cfi_def_cfa_offset 16
	.cfi_offset %rbp, -16
	movq	%rsp, %rbp
	.cfi_def_cfa_register %rbp
	subq	$32, %rsp
	movq	%rdi, -8(%rbp)
Ltmp19:
	.loc	17 1001 5 prologue_end  ## /Library/Developer/CommandLineTools/usr/include/c++/v1/ostream:1001:5
	movq	-8(%rbp), %rdi
	.loc	17 1001 14 is_stmt 0    ## /Library/Developer/CommandLineTools/usr/include/c++/v1/ostream:1001:14
	movq	-8(%rbp), %rax
	movq	(%rax), %rcx
	movq	-24(%rcx), %rcx
	addq	%rcx, %rax
	movq	%rdi, -16(%rbp)         ## 8-byte Spill
	.loc	17 1001 19              ## /Library/Developer/CommandLineTools/usr/include/c++/v1/ostream:1001:19
	movq	%rax, %rdi
	movl	$10, %esi
	callq	__ZNKSt3__19basic_iosIcNS_11char_traitsIcEEE5widenEc
	movq	-16(%rbp), %rdi         ## 8-byte Reload
	.loc	17 1001 10              ## /Library/Developer/CommandLineTools/usr/include/c++/v1/ostream:1001:10
	movsbl	%al, %esi
	callq	__ZNSt3__113basic_ostreamIcNS_11char_traitsIcEEE3putEc
	.loc	17 1002 5 is_stmt 1     ## /Library/Developer/CommandLineTools/usr/include/c++/v1/ostream:1002:5
	movq	-8(%rbp), %rdi
	movq	%rax, -24(%rbp)         ## 8-byte Spill
	.loc	17 1002 10 is_stmt 0    ## /Library/Developer/CommandLineTools/usr/include/c++/v1/ostream:1002:10
	callq	__ZNSt3__113basic_ostreamIcNS_11char_traitsIcEEE5flushEv
	.loc	17 1003 12 is_stmt 1    ## /Library/Developer/CommandLineTools/usr/include/c++/v1/ostream:1003:12
	movq	-8(%rbp), %rcx
	movq	%rax, -32(%rbp)         ## 8-byte Spill
	.loc	17 1003 5 is_stmt 0     ## /Library/Developer/CommandLineTools/usr/include/c++/v1/ostream:1003:5
	movq	%rcx, %rax
	addq	$32, %rsp
	popq	%rbp
	retq
Ltmp20:
Lfunc_end4:
	.cfi_endproc
                                        ## -- End function
	.globl	__ZNSt3__1lsINS_11char_traitsIcEEEERNS_13basic_ostreamIcT_EES6_PKc ## -- Begin function _ZNSt3__1lsINS_11char_traitsIcEEEERNS_13basic_ostreamIcT_EES6_PKc
	.weak_definition	__ZNSt3__1lsINS_11char_traitsIcEEEERNS_13basic_ostreamIcT_EES6_PKc
	.p2align	4, 0x90
__ZNSt3__1lsINS_11char_traitsIcEEEERNS_13basic_ostreamIcT_EES6_PKc: ## @_ZNSt3__1lsINS_11char_traitsIcEEEERNS_13basic_ostreamIcT_EES6_PKc
Lfunc_begin5:
	.loc	17 863 0 is_stmt 1      ## /Library/Developer/CommandLineTools/usr/include/c++/v1/ostream:863:0
	.cfi_startproc
## %bb.0:                               ## %entry
	pushq	%rbp
	.cfi_def_cfa_offset 16
	.cfi_offset %rbp, -16
	movq	%rsp, %rbp
	.cfi_def_cfa_register %rbp
	subq	$32, %rsp
	movq	%rdi, -8(%rbp)
	movq	%rsi, -16(%rbp)
Ltmp21:
	.loc	17 864 44 prologue_end  ## /Library/Developer/CommandLineTools/usr/include/c++/v1/ostream:864:44
	movq	-8(%rbp), %rdi
	.loc	17 864 50 is_stmt 0     ## /Library/Developer/CommandLineTools/usr/include/c++/v1/ostream:864:50
	movq	-16(%rbp), %rsi
	.loc	17 864 73               ## /Library/Developer/CommandLineTools/usr/include/c++/v1/ostream:864:73
	movq	-16(%rbp), %rax
	movq	%rdi, -24(%rbp)         ## 8-byte Spill
	.loc	17 864 57               ## /Library/Developer/CommandLineTools/usr/include/c++/v1/ostream:864:57
	movq	%rax, %rdi
	movq	%rsi, -32(%rbp)         ## 8-byte Spill
	callq	__ZNSt3__111char_traitsIcE6lengthEPKc
	movq	-24(%rbp), %rdi         ## 8-byte Reload
	movq	-32(%rbp), %rsi         ## 8-byte Reload
	.loc	17 864 12               ## /Library/Developer/CommandLineTools/usr/include/c++/v1/ostream:864:12
	movq	%rax, %rdx
	callq	__ZNSt3__124__put_character_sequenceIcNS_11char_traitsIcEEEERNS_13basic_ostreamIT_T0_EES7_PKS4_m
	.loc	17 864 5                ## /Library/Developer/CommandLineTools/usr/include/c++/v1/ostream:864:5
	addq	$32, %rsp
	popq	%rbp
	retq
Ltmp22:
Lfunc_end5:
	.cfi_endproc
                                        ## -- End function
	.p2align	4, 0x90         ## -- Begin function _ZNKSt3__112basic_stringIcNS_11char_traitsIcEENS_9allocatorIcEEE4sizeEv
__ZNKSt3__112basic_stringIcNS_11char_traitsIcEENS_9allocatorIcEEE4sizeEv: ## @_ZNKSt3__112basic_stringIcNS_11char_traitsIcEENS_9allocatorIcEEE4sizeEv
Lfunc_begin6:
	.loc	6 941 0 is_stmt 1       ## /Library/Developer/CommandLineTools/usr/include/c++/v1/string:941:0
	.cfi_startproc
## %bb.0:                               ## %entry
	pushq	%rbp
	.cfi_def_cfa_offset 16
	.cfi_offset %rbp, -16
	movq	%rsp, %rbp
	.cfi_def_cfa_register %rbp
	subq	$32, %rsp
	movq	%rdi, -8(%rbp)
	movq	-8(%rbp), %rax
Ltmp23:
	.loc	6 941 17 prologue_end   ## /Library/Developer/CommandLineTools/usr/include/c++/v1/string:941:17
	movq	%rax, %rdi
	movq	%rax, -16(%rbp)         ## 8-byte Spill
	callq	__ZNKSt3__112basic_stringIcNS_11char_traitsIcEENS_9allocatorIcEEE9__is_longEv
	testb	$1, %al
	jne	LBB6_1
	jmp	LBB6_2
LBB6_1:                                 ## %cond.true
	.loc	6 0 17 is_stmt 0        ## /Library/Developer/CommandLineTools/usr/include/c++/v1/string:0:17
	movq	-16(%rbp), %rdi         ## 8-byte Reload
	.loc	6 941 31                ## /Library/Developer/CommandLineTools/usr/include/c++/v1/string:941:31
	callq	__ZNKSt3__112basic_stringIcNS_11char_traitsIcEENS_9allocatorIcEEE15__get_long_sizeEv
	movq	%rax, -24(%rbp)         ## 8-byte Spill
	.loc	6 941 17                ## /Library/Developer/CommandLineTools/usr/include/c++/v1/string:941:17
	jmp	LBB6_3
LBB6_2:                                 ## %cond.false
	.loc	6 0 17                  ## /Library/Developer/CommandLineTools/usr/include/c++/v1/string:0:17
	movq	-16(%rbp), %rdi         ## 8-byte Reload
	.loc	6 941 51                ## /Library/Developer/CommandLineTools/usr/include/c++/v1/string:941:51
	callq	__ZNKSt3__112basic_stringIcNS_11char_traitsIcEENS_9allocatorIcEEE16__get_short_sizeEv
	movq	%rax, -24(%rbp)         ## 8-byte Spill
LBB6_3:                                 ## %cond.end
	.loc	6 0 51                  ## /Library/Developer/CommandLineTools/usr/include/c++/v1/string:0:51
	movq	-24(%rbp), %rax         ## 8-byte Reload
	.loc	6 941 10                ## /Library/Developer/CommandLineTools/usr/include/c++/v1/string:941:10
	addq	$32, %rsp
	popq	%rbp
	retq
Ltmp24:
Lfunc_end6:
	.cfi_endproc
                                        ## -- End function
	.p2align	4, 0x90         ## -- Begin function _ZNSt3__112basic_stringIcNS_11char_traitsIcEENS_9allocatorIcEEEC2IDnEEPKc
__ZNSt3__112basic_stringIcNS_11char_traitsIcEENS_9allocatorIcEEEC2IDnEEPKc: ## @_ZNSt3__112basic_stringIcNS_11char_traitsIcEENS_9allocatorIcEEEC2IDnEEPKc
Lfunc_begin7:
	.loc	6 811 0 is_stmt 1       ## /Library/Developer/CommandLineTools/usr/include/c++/v1/string:811:0
	.cfi_startproc
## %bb.0:                               ## %entry
	pushq	%rbp
	.cfi_def_cfa_offset 16
	.cfi_offset %rbp, -16
	movq	%rsp, %rbp
	.cfi_def_cfa_register %rbp
	subq	$32, %rsp
	movq	%rdi, -8(%rbp)
	movq	%rsi, -16(%rbp)
	movq	-8(%rbp), %rax
Ltmp25:
	.loc	6 811 5 prologue_end    ## /Library/Developer/CommandLineTools/usr/include/c++/v1/string:811:5
	movq	%rax, %rdi
	movq	%rax, -24(%rbp)         ## 8-byte Spill
	callq	__ZNSt3__117__compressed_pairINS_12basic_stringIcNS_11char_traitsIcEENS_9allocatorIcEEE5__repES5_EC1ILb1EvEEv
Ltmp26:
	.loc	6 813 14                ## /Library/Developer/CommandLineTools/usr/include/c++/v1/string:813:14
	movq	-16(%rbp), %rsi
	.loc	6 813 39 is_stmt 0      ## /Library/Developer/CommandLineTools/usr/include/c++/v1/string:813:39
	movq	-16(%rbp), %rdi
	movq	%rsi, -32(%rbp)         ## 8-byte Spill
	.loc	6 813 19                ## /Library/Developer/CommandLineTools/usr/include/c++/v1/string:813:19
	callq	__ZNSt3__111char_traitsIcE6lengthEPKc
	movq	-24(%rbp), %rdi         ## 8-byte Reload
	movq	-32(%rbp), %rsi         ## 8-byte Reload
	.loc	6 813 7                 ## /Library/Developer/CommandLineTools/usr/include/c++/v1/string:813:7
	movq	%rax, %rdx
	callq	__ZNSt3__112basic_stringIcNS_11char_traitsIcEENS_9allocatorIcEEE6__initEPKcm
Ltmp27:
	.loc	6 817 5 is_stmt 1       ## /Library/Developer/CommandLineTools/usr/include/c++/v1/string:817:5
	addq	$32, %rsp
	popq	%rbp
	retq
Ltmp28:
Lfunc_end7:
	.cfi_endproc
                                        ## -- End function
	.p2align	4, 0x90         ## -- Begin function _ZNSt3__117__compressed_pairINS_12basic_stringIcNS_11char_traitsIcEENS_9allocatorIcEEE5__repES5_EC1ILb1EvEEv
__ZNSt3__117__compressed_pairINS_12basic_stringIcNS_11char_traitsIcEENS_9allocatorIcEEE5__repES5_EC1ILb1EvEEv: ## @_ZNSt3__117__compressed_pairINS_12basic_stringIcNS_11char_traitsIcEENS_9allocatorIcEEE5__repES5_EC1ILb1EvEEv
Lfunc_begin8:
	.loc	7 2230 0                ## /Library/Developer/CommandLineTools/usr/include/c++/v1/memory:2230:0
	.cfi_startproc
## %bb.0:                               ## %entry
	pushq	%rbp
	.cfi_def_cfa_offset 16
	.cfi_offset %rbp, -16
	movq	%rsp, %rbp
	.cfi_def_cfa_register %rbp
	subq	$16, %rsp
	movq	%rdi, -8(%rbp)
	movq	-8(%rbp), %rdi
Ltmp29:
	.loc	7 2230 33 prologue_end  ## /Library/Developer/CommandLineTools/usr/include/c++/v1/memory:2230:33
	callq	__ZNSt3__117__compressed_pairINS_12basic_stringIcNS_11char_traitsIcEENS_9allocatorIcEEE5__repES5_EC2ILb1EvEEv
	.loc	7 2230 34 is_stmt 0     ## /Library/Developer/CommandLineTools/usr/include/c++/v1/memory:2230:34
	addq	$16, %rsp
	popq	%rbp
	retq
Ltmp30:
Lfunc_end8:
	.cfi_endproc
                                        ## -- End function
	.globl	__ZNSt3__111char_traitsIcE6lengthEPKc ## -- Begin function _ZNSt3__111char_traitsIcE6lengthEPKc
	.weak_definition	__ZNSt3__111char_traitsIcE6lengthEPKc
	.p2align	4, 0x90
__ZNSt3__111char_traitsIcE6lengthEPKc:  ## @_ZNSt3__111char_traitsIcE6lengthEPKc
Lfunc_begin9:
	.loc	11 217 0 is_stmt 1      ## /Library/Developer/CommandLineTools/usr/include/c++/v1/__string:217:0
	.cfi_startproc
## %bb.0:                               ## %entry
	pushq	%rbp
	.cfi_def_cfa_offset 16
	.cfi_offset %rbp, -16
	movq	%rsp, %rbp
	.cfi_def_cfa_register %rbp
	subq	$16, %rsp
	movq	%rdi, -8(%rbp)
Ltmp31:
	.loc	11 217 70 prologue_end  ## /Library/Developer/CommandLineTools/usr/include/c++/v1/__string:217:70
	movq	-8(%rbp), %rdi
	.loc	11 217 53 is_stmt 0     ## /Library/Developer/CommandLineTools/usr/include/c++/v1/__string:217:53
	callq	_strlen
	.loc	11 217 46               ## /Library/Developer/CommandLineTools/usr/include/c++/v1/__string:217:46
	addq	$16, %rsp
	popq	%rbp
	retq
Ltmp32:
Lfunc_end9:
	.cfi_endproc
                                        ## -- End function
	.p2align	4, 0x90         ## -- Begin function _ZNSt3__117__compressed_pairINS_12basic_stringIcNS_11char_traitsIcEENS_9allocatorIcEEE5__repES5_EC2ILb1EvEEv
__ZNSt3__117__compressed_pairINS_12basic_stringIcNS_11char_traitsIcEENS_9allocatorIcEEE5__repES5_EC2ILb1EvEEv: ## @_ZNSt3__117__compressed_pairINS_12basic_stringIcNS_11char_traitsIcEENS_9allocatorIcEEE5__repES5_EC2ILb1EvEEv
Lfunc_begin10:
	.loc	7 2230 0 is_stmt 1      ## /Library/Developer/CommandLineTools/usr/include/c++/v1/memory:2230:0
	.cfi_startproc
## %bb.0:                               ## %entry
	pushq	%rbp
	.cfi_def_cfa_offset 16
	.cfi_offset %rbp, -16
	movq	%rsp, %rbp
	.cfi_def_cfa_register %rbp
	subq	$16, %rsp
	movq	%rdi, -8(%rbp)
	movq	-8(%rbp), %rax
Ltmp33:
	.loc	7 2230 33 prologue_end  ## /Library/Developer/CommandLineTools/usr/include/c++/v1/memory:2230:33
	movq	%rax, %rcx
	.loc	7 2230 13 is_stmt 0     ## /Library/Developer/CommandLineTools/usr/include/c++/v1/memory:2230:13
	movq	%rcx, %rdi
	movq	%rax, -16(%rbp)         ## 8-byte Spill
	callq	__ZNSt3__122__compressed_pair_elemINS_12basic_stringIcNS_11char_traitsIcEENS_9allocatorIcEEE5__repELi0ELb0EEC2Ev
	movq	-16(%rbp), %rax         ## 8-byte Reload
	movq	%rax, %rdi
	callq	__ZNSt3__122__compressed_pair_elemINS_9allocatorIcEELi1ELb1EEC2Ev
	.loc	7 2230 34               ## /Library/Developer/CommandLineTools/usr/include/c++/v1/memory:2230:34
	addq	$16, %rsp
	popq	%rbp
	retq
Ltmp34:
Lfunc_end10:
	.cfi_endproc
                                        ## -- End function
	.p2align	4, 0x90         ## -- Begin function _ZNSt3__122__compressed_pair_elemINS_12basic_stringIcNS_11char_traitsIcEENS_9allocatorIcEEE5__repELi0ELb0EEC2Ev
__ZNSt3__122__compressed_pair_elemINS_12basic_stringIcNS_11char_traitsIcEENS_9allocatorIcEEE5__repELi0ELb0EEC2Ev: ## @_ZNSt3__122__compressed_pair_elemINS_12basic_stringIcNS_11char_traitsIcEENS_9allocatorIcEEE5__repELi0ELb0EEC2Ev
Lfunc_begin11:
	.loc	7 2139 0 is_stmt 1      ## /Library/Developer/CommandLineTools/usr/include/c++/v1/memory:2139:0
	.cfi_startproc
## %bb.0:                               ## %entry
	pushq	%rbp
	.cfi_def_cfa_offset 16
	.cfi_offset %rbp, -16
	movq	%rsp, %rbp
	.cfi_def_cfa_register %rbp
	subq	$16, %rsp
	xorl	%esi, %esi
	movq	%rdi, -8(%rbp)
	movq	-8(%rbp), %rax
Ltmp35:
	.loc	7 2139 66 prologue_end  ## /Library/Developer/CommandLineTools/usr/include/c++/v1/memory:2139:66
	movq	%rax, %rdi
	movl	$24, %edx
	callq	_memset
	.loc	7 2139 78 is_stmt 0     ## /Library/Developer/CommandLineTools/usr/include/c++/v1/memory:2139:78
	addq	$16, %rsp
	popq	%rbp
	retq
Ltmp36:
Lfunc_end11:
	.cfi_endproc
                                        ## -- End function
	.p2align	4, 0x90         ## -- Begin function _ZNSt3__122__compressed_pair_elemINS_9allocatorIcEELi1ELb1EEC2Ev
__ZNSt3__122__compressed_pair_elemINS_9allocatorIcEELi1ELb1EEC2Ev: ## @_ZNSt3__122__compressed_pair_elemINS_9allocatorIcEELi1ELb1EEC2Ev
Lfunc_begin12:
	.loc	7 2176 0 is_stmt 1      ## /Library/Developer/CommandLineTools/usr/include/c++/v1/memory:2176:0
	.cfi_startproc
## %bb.0:                               ## %entry
	pushq	%rbp
	.cfi_def_cfa_offset 16
	.cfi_offset %rbp, -16
	movq	%rsp, %rbp
	.cfi_def_cfa_register %rbp
	subq	$16, %rsp
	movq	%rdi, -8(%rbp)
	movq	-8(%rbp), %rax
Ltmp37:
	.loc	7 2176 39 prologue_end  ## /Library/Developer/CommandLineTools/usr/include/c++/v1/memory:2176:39
	movq	%rax, %rdi
	callq	__ZNSt3__19allocatorIcEC2Ev
	.loc	7 2176 72 is_stmt 0     ## /Library/Developer/CommandLineTools/usr/include/c++/v1/memory:2176:72
	addq	$16, %rsp
	popq	%rbp
	retq
Ltmp38:
Lfunc_end12:
	.cfi_endproc
                                        ## -- End function
	.p2align	4, 0x90         ## -- Begin function _ZNSt3__19allocatorIcEC2Ev
__ZNSt3__19allocatorIcEC2Ev:            ## @_ZNSt3__19allocatorIcEC2Ev
Lfunc_begin13:
	.loc	7 1797 0 is_stmt 1      ## /Library/Developer/CommandLineTools/usr/include/c++/v1/memory:1797:0
	.cfi_startproc
## %bb.0:                               ## %entry
	pushq	%rbp
	.cfi_def_cfa_offset 16
	.cfi_offset %rbp, -16
	movq	%rsp, %rbp
	.cfi_def_cfa_register %rbp
	movq	%rdi, -8(%rbp)
Ltmp39:
	.loc	7 1797 28 prologue_end  ## /Library/Developer/CommandLineTools/usr/include/c++/v1/memory:1797:28
	popq	%rbp
	retq
Ltmp40:
Lfunc_end13:
	.cfi_endproc
                                        ## -- End function
	.globl	__ZNSt3__124__put_character_sequenceIcNS_11char_traitsIcEEEERNS_13basic_ostreamIT_T0_EES7_PKS4_m ## -- Begin function _ZNSt3__124__put_character_sequenceIcNS_11char_traitsIcEEEERNS_13basic_ostreamIT_T0_EES7_PKS4_m
	.weak_definition	__ZNSt3__124__put_character_sequenceIcNS_11char_traitsIcEEEERNS_13basic_ostreamIT_T0_EES7_PKS4_m
	.p2align	4, 0x90
__ZNSt3__124__put_character_sequenceIcNS_11char_traitsIcEEEERNS_13basic_ostreamIT_T0_EES7_PKS4_m: ## @_ZNSt3__124__put_character_sequenceIcNS_11char_traitsIcEEEERNS_13basic_ostreamIT_T0_EES7_PKS4_m
Lfunc_begin14:
	.loc	17 716 0                ## /Library/Developer/CommandLineTools/usr/include/c++/v1/ostream:716:0
	.cfi_startproc
	.cfi_personality 155, ___gxx_personality_v0
	.cfi_lsda 16, Lexception1
## %bb.0:                               ## %entry
	pushq	%rbp
	.cfi_def_cfa_offset 16
	.cfi_offset %rbp, -16
	movq	%rsp, %rbp
	.cfi_def_cfa_register %rbp
	subq	$160, %rsp
	movq	%rdi, -8(%rbp)
	movq	%rsi, -16(%rbp)
	movq	%rdx, -24(%rbp)
Ltmp61:
	.loc	17 721 61 prologue_end  ## /Library/Developer/CommandLineTools/usr/include/c++/v1/ostream:721:61
	movq	-8(%rbp), %rsi
Ltmp41:
	leaq	-40(%rbp), %rdi
	.loc	17 721 57 is_stmt 0     ## /Library/Developer/CommandLineTools/usr/include/c++/v1/ostream:721:57
	callq	__ZNSt3__113basic_ostreamIcNS_11char_traitsIcEEE6sentryC1ERS3_
Ltmp42:
	jmp	LBB14_1
LBB14_1:                                ## %invoke.cont
Ltmp44:
	.loc	17 0 57                 ## /Library/Developer/CommandLineTools/usr/include/c++/v1/ostream:0:57
	leaq	-40(%rbp), %rdi
Ltmp62:
	.loc	17 722 13 is_stmt 1     ## /Library/Developer/CommandLineTools/usr/include/c++/v1/ostream:722:13
	callq	__ZNKSt3__113basic_ostreamIcNS_11char_traitsIcEEE6sentrycvbEv
Ltmp45:
	movb	%al, -73(%rbp)          ## 1-byte Spill
	jmp	LBB14_2
Ltmp63:
LBB14_2:                                ## %invoke.cont2
	.loc	17 0 13 is_stmt 0       ## /Library/Developer/CommandLineTools/usr/include/c++/v1/ostream:0:13
	movb	-73(%rbp), %al          ## 1-byte Reload
	.loc	17 722 13               ## /Library/Developer/CommandLineTools/usr/include/c++/v1/ostream:722:13
	testb	$1, %al
	jne	LBB14_3
	jmp	LBB14_18
LBB14_3:                                ## %if.then
Ltmp64:
	.loc	17 725 38 is_stmt 1     ## /Library/Developer/CommandLineTools/usr/include/c++/v1/ostream:725:38
	movq	-8(%rbp), %rsi
	leaq	-72(%rbp), %rdi
	.loc	17 725 34 is_stmt 0     ## /Library/Developer/CommandLineTools/usr/include/c++/v1/ostream:725:34
	callq	__ZNSt3__119ostreambuf_iteratorIcNS_11char_traitsIcEEEC1ERNS_13basic_ostreamIcS2_EE
	.loc	17 726 34 is_stmt 1     ## /Library/Developer/CommandLineTools/usr/include/c++/v1/ostream:726:34
	movq	-16(%rbp), %rsi
	.loc	17 727 35               ## /Library/Developer/CommandLineTools/usr/include/c++/v1/ostream:727:35
	movq	-8(%rbp), %rax
	movq	(%rax), %rcx
	movq	-24(%rcx), %rcx
	addq	%rcx, %rax
Ltmp46:
	.loc	17 727 40 is_stmt 0     ## /Library/Developer/CommandLineTools/usr/include/c++/v1/ostream:727:40
	movq	%rax, %rdi
	movq	%rsi, -88(%rbp)         ## 8-byte Spill
	callq	__ZNKSt3__18ios_base5flagsEv
Ltmp47:
	movl	%eax, -92(%rbp)         ## 4-byte Spill
	jmp	LBB14_4
LBB14_4:                                ## %invoke.cont3
	.loc	17 0 40                 ## /Library/Developer/CommandLineTools/usr/include/c++/v1/ostream:0:40
	movl	-92(%rbp), %eax         ## 4-byte Reload
	.loc	17 727 48               ## /Library/Developer/CommandLineTools/usr/include/c++/v1/ostream:727:48
	andl	$176, %eax
	.loc	17 727 73               ## /Library/Developer/CommandLineTools/usr/include/c++/v1/ostream:727:73
	cmpl	$32, %eax
	.loc	17 727 34               ## /Library/Developer/CommandLineTools/usr/include/c++/v1/ostream:727:34
	jne	LBB14_6
## %bb.5:                               ## %cond.true
	.loc	17 728 38 is_stmt 1     ## /Library/Developer/CommandLineTools/usr/include/c++/v1/ostream:728:38
	movq	-16(%rbp), %rax
	.loc	17 728 44 is_stmt 0     ## /Library/Developer/CommandLineTools/usr/include/c++/v1/ostream:728:44
	addq	-24(%rbp), %rax
	movq	%rax, -104(%rbp)        ## 8-byte Spill
	.loc	17 727 34 is_stmt 1     ## /Library/Developer/CommandLineTools/usr/include/c++/v1/ostream:727:34
	jmp	LBB14_7
LBB14_6:                                ## %cond.false
	.loc	17 729 38               ## /Library/Developer/CommandLineTools/usr/include/c++/v1/ostream:729:38
	movq	-16(%rbp), %rax
	movq	%rax, -104(%rbp)        ## 8-byte Spill
LBB14_7:                                ## %cond.end
	.loc	17 0 38 is_stmt 0       ## /Library/Developer/CommandLineTools/usr/include/c++/v1/ostream:0:38
	movq	-104(%rbp), %rax        ## 8-byte Reload
	.loc	17 730 34 is_stmt 1     ## /Library/Developer/CommandLineTools/usr/include/c++/v1/ostream:730:34
	movq	-16(%rbp), %rcx
	.loc	17 730 42 is_stmt 0     ## /Library/Developer/CommandLineTools/usr/include/c++/v1/ostream:730:42
	movq	-24(%rbp), %rdx
	.loc	17 730 40               ## /Library/Developer/CommandLineTools/usr/include/c++/v1/ostream:730:40
	addq	%rdx, %rcx
	.loc	17 731 34 is_stmt 1     ## /Library/Developer/CommandLineTools/usr/include/c++/v1/ostream:731:34
	movq	-8(%rbp), %rdx
	movq	(%rdx), %rsi
	movq	-24(%rsi), %rsi
	addq	%rsi, %rdx
Ltmp48:
	.loc	17 732 39               ## /Library/Developer/CommandLineTools/usr/include/c++/v1/ostream:732:39
	movq	%rdx, %rdi
	movq	%rax, -112(%rbp)        ## 8-byte Spill
	movq	%rcx, -120(%rbp)        ## 8-byte Spill
	movq	%rdx, -128(%rbp)        ## 8-byte Spill
	callq	__ZNKSt3__19basic_iosIcNS_11char_traitsIcEEE4fillEv
Ltmp49:
	movb	%al, -129(%rbp)         ## 1-byte Spill
	jmp	LBB14_8
LBB14_8:                                ## %invoke.cont15
	.loc	17 725 17               ## /Library/Developer/CommandLineTools/usr/include/c++/v1/ostream:725:17
	movq	-72(%rbp), %rdi
Ltmp50:
	movb	-129(%rbp), %al         ## 1-byte Reload
	movsbl	%al, %r9d
	movq	-88(%rbp), %rsi         ## 8-byte Reload
	movq	-112(%rbp), %rdx        ## 8-byte Reload
	movq	-120(%rbp), %rcx        ## 8-byte Reload
	movq	-128(%rbp), %r8         ## 8-byte Reload
	callq	__ZNSt3__116__pad_and_outputIcNS_11char_traitsIcEEEENS_19ostreambuf_iteratorIT_T0_EES6_PKS4_S8_S8_RNS_8ios_baseES4_
Ltmp51:
	movq	%rax, -144(%rbp)        ## 8-byte Spill
	jmp	LBB14_9
LBB14_9:                                ## %invoke.cont17
	.loc	17 0 17 is_stmt 0       ## /Library/Developer/CommandLineTools/usr/include/c++/v1/ostream:0:17
	movq	-144(%rbp), %rax        ## 8-byte Reload
	.loc	17 725 17               ## /Library/Developer/CommandLineTools/usr/include/c++/v1/ostream:725:17
	movq	%rax, -64(%rbp)
	.loc	17 732 47 is_stmt 1     ## /Library/Developer/CommandLineTools/usr/include/c++/v1/ostream:732:47
	leaq	-64(%rbp), %rdi
	callq	__ZNKSt3__119ostreambuf_iteratorIcNS_11char_traitsIcEEE6failedEv
Ltmp65:
	.loc	17 725 17               ## /Library/Developer/CommandLineTools/usr/include/c++/v1/ostream:725:17
	testb	$1, %al
	jne	LBB14_10
	jmp	LBB14_17
LBB14_10:                               ## %if.then21
Ltmp66:
	.loc	17 733 17               ## /Library/Developer/CommandLineTools/usr/include/c++/v1/ostream:733:17
	movq	-8(%rbp), %rax
	movq	(%rax), %rcx
	movq	-24(%rcx), %rcx
	addq	%rcx, %rax
Ltmp52:
	movl	$5, %esi
	.loc	17 733 22 is_stmt 0     ## /Library/Developer/CommandLineTools/usr/include/c++/v1/ostream:733:22
	movq	%rax, %rdi
	callq	__ZNSt3__19basic_iosIcNS_11char_traitsIcEEE8setstateEj
Ltmp53:
	jmp	LBB14_11
LBB14_11:                               ## %invoke.cont26
	.loc	17 733 17               ## /Library/Developer/CommandLineTools/usr/include/c++/v1/ostream:733:17
	jmp	LBB14_17
Ltmp67:
LBB14_12:                               ## %lpad
Ltmp43:
                                        ## kill: def $edx killed $edx killed $rdx
	.loc	17 743 1 is_stmt 1      ## /Library/Developer/CommandLineTools/usr/include/c++/v1/ostream:743:1
	movq	%rax, -48(%rbp)
	movl	%edx, -52(%rbp)
	jmp	LBB14_14
LBB14_13:                               ## %lpad1
Ltmp54:
                                        ## kill: def $edx killed $edx killed $rdx
Ltmp68:
	.loc	17 743 1 is_stmt 0      ## /Library/Developer/CommandLineTools/usr/include/c++/v1/ostream:743:1
	movq	%rax, -48(%rbp)
	movl	%edx, -52(%rbp)
Ltmp69:
	.loc	17 736 5 is_stmt 1      ## /Library/Developer/CommandLineTools/usr/include/c++/v1/ostream:736:5
	leaq	-40(%rbp), %rdi
	callq	__ZNSt3__113basic_ostreamIcNS_11char_traitsIcEEE6sentryD1Ev
LBB14_14:                               ## %catch
Ltmp70:
	.loc	17 736 5 is_stmt 0      ## /Library/Developer/CommandLineTools/usr/include/c++/v1/ostream:736:5
	movq	-48(%rbp), %rdi
	callq	___cxa_begin_catch
Ltmp71:
	.loc	17 739 9 is_stmt 1      ## /Library/Developer/CommandLineTools/usr/include/c++/v1/ostream:739:9
	movq	-8(%rbp), %rcx
	movq	(%rcx), %rdx
	movq	-24(%rdx), %rdx
	addq	%rdx, %rcx
Ltmp55:
	.loc	17 739 14 is_stmt 0     ## /Library/Developer/CommandLineTools/usr/include/c++/v1/ostream:739:14
	movq	%rcx, %rdi
	movq	%rax, -152(%rbp)        ## 8-byte Spill
	callq	__ZNSt3__18ios_base33__set_badbit_and_consider_rethrowEv
Ltmp56:
	jmp	LBB14_15
LBB14_15:                               ## %invoke.cont33
	.loc	17 740 5 is_stmt 1      ## /Library/Developer/CommandLineTools/usr/include/c++/v1/ostream:740:5
	callq	___cxa_end_catch
Ltmp72:
LBB14_16:                               ## %try.cont
	.loc	17 742 12               ## /Library/Developer/CommandLineTools/usr/include/c++/v1/ostream:742:12
	movq	-8(%rbp), %rax
	.loc	17 742 5 is_stmt 0      ## /Library/Developer/CommandLineTools/usr/include/c++/v1/ostream:742:5
	addq	$160, %rsp
	popq	%rbp
	retq
LBB14_17:                               ## %if.end
Ltmp73:
	.loc	17 734 9 is_stmt 1      ## /Library/Developer/CommandLineTools/usr/include/c++/v1/ostream:734:9
	jmp	LBB14_18
Ltmp74:
LBB14_18:                               ## %if.end27
	.loc	17 736 5                ## /Library/Developer/CommandLineTools/usr/include/c++/v1/ostream:736:5
	leaq	-40(%rbp), %rdi
	callq	__ZNSt3__113basic_ostreamIcNS_11char_traitsIcEEE6sentryD1Ev
Ltmp75:
	.loc	17 736 5 is_stmt 0      ## /Library/Developer/CommandLineTools/usr/include/c++/v1/ostream:736:5
	jmp	LBB14_16
Ltmp76:
LBB14_19:                               ## %lpad32
Ltmp57:
                                        ## kill: def $edx killed $edx killed $rdx
	.loc	17 743 1 is_stmt 1      ## /Library/Developer/CommandLineTools/usr/include/c++/v1/ostream:743:1
	movq	%rax, -48(%rbp)
	movl	%edx, -52(%rbp)
Ltmp58:
	.loc	17 740 5                ## /Library/Developer/CommandLineTools/usr/include/c++/v1/ostream:740:5
	callq	___cxa_end_catch
Ltmp59:
	jmp	LBB14_20
LBB14_20:                               ## %invoke.cont34
	jmp	LBB14_21
LBB14_21:                               ## %eh.resume
	movq	-48(%rbp), %rdi
	callq	__Unwind_Resume
	ud2
LBB14_22:                               ## %terminate.lpad
Ltmp60:
	movq	%rax, %rdi
	movq	%rdx, -160(%rbp)        ## 8-byte Spill
	callq	___clang_call_terminate
Ltmp77:
Lfunc_end14:
	.cfi_endproc
	.section	__TEXT,__gcc_except_tab
	.p2align	2
GCC_except_table14:
Lexception1:
	.byte	255                     ## @LPStart Encoding = omit
	.byte	155                     ## @TType Encoding = indirect pcrel sdata4
	.uleb128 Lttbase0-Lttbaseref0
Lttbaseref0:
	.byte	1                       ## Call site Encoding = uleb128
	.uleb128 Lcst_end1-Lcst_begin1
Lcst_begin1:
	.uleb128 Ltmp41-Lfunc_begin14   ## >> Call Site 1 <<
	.uleb128 Ltmp42-Ltmp41          ##   Call between Ltmp41 and Ltmp42
	.uleb128 Ltmp43-Lfunc_begin14   ##     jumps to Ltmp43
	.byte	1                       ##   On action: 1
	.uleb128 Ltmp44-Lfunc_begin14   ## >> Call Site 2 <<
	.uleb128 Ltmp53-Ltmp44          ##   Call between Ltmp44 and Ltmp53
	.uleb128 Ltmp54-Lfunc_begin14   ##     jumps to Ltmp54
	.byte	1                       ##   On action: 1
	.uleb128 Ltmp53-Lfunc_begin14   ## >> Call Site 3 <<
	.uleb128 Ltmp55-Ltmp53          ##   Call between Ltmp53 and Ltmp55
	.byte	0                       ##     has no landing pad
	.byte	0                       ##   On action: cleanup
	.uleb128 Ltmp55-Lfunc_begin14   ## >> Call Site 4 <<
	.uleb128 Ltmp56-Ltmp55          ##   Call between Ltmp55 and Ltmp56
	.uleb128 Ltmp57-Lfunc_begin14   ##     jumps to Ltmp57
	.byte	0                       ##   On action: cleanup
	.uleb128 Ltmp56-Lfunc_begin14   ## >> Call Site 5 <<
	.uleb128 Ltmp58-Ltmp56          ##   Call between Ltmp56 and Ltmp58
	.byte	0                       ##     has no landing pad
	.byte	0                       ##   On action: cleanup
	.uleb128 Ltmp58-Lfunc_begin14   ## >> Call Site 6 <<
	.uleb128 Ltmp59-Ltmp58          ##   Call between Ltmp58 and Ltmp59
	.uleb128 Ltmp60-Lfunc_begin14   ##     jumps to Ltmp60
	.byte	1                       ##   On action: 1
	.uleb128 Ltmp59-Lfunc_begin14   ## >> Call Site 7 <<
	.uleb128 Lfunc_end14-Ltmp59     ##   Call between Ltmp59 and Lfunc_end14
	.byte	0                       ##     has no landing pad
	.byte	0                       ##   On action: cleanup
Lcst_end1:
	.byte	1                       ## >> Action Record 1 <<
                                        ##   Catch TypeInfo 1
	.byte	0                       ##   No further actions
	.p2align	2
                                        ## >> Catch TypeInfos <<
	.long	0                       ## TypeInfo 1
Lttbase0:
	.p2align	2
                                        ## -- End function
	.section	__TEXT,__text,regular,pure_instructions
	.p2align	4, 0x90         ## -- Begin function _ZNKSt3__112basic_stringIcNS_11char_traitsIcEENS_9allocatorIcEEE4dataEv
__ZNKSt3__112basic_stringIcNS_11char_traitsIcEENS_9allocatorIcEEE4dataEv: ## @_ZNKSt3__112basic_stringIcNS_11char_traitsIcEENS_9allocatorIcEEE4dataEv
Lfunc_begin15:
	.loc	6 1228 0                ## /Library/Developer/CommandLineTools/usr/include/c++/v1/string:1228:0
	.cfi_startproc
## %bb.0:                               ## %entry
	pushq	%rbp
	.cfi_def_cfa_offset 16
	.cfi_offset %rbp, -16
	movq	%rsp, %rbp
	.cfi_def_cfa_register %rbp
	subq	$16, %rsp
	movq	%rdi, -8(%rbp)
	movq	-8(%rbp), %rdi
Ltmp78:
	.loc	6 1228 79 prologue_end  ## /Library/Developer/CommandLineTools/usr/include/c++/v1/string:1228:79
	callq	__ZNKSt3__112basic_stringIcNS_11char_traitsIcEENS_9allocatorIcEEE13__get_pointerEv
	.loc	6 1228 55 is_stmt 0     ## /Library/Developer/CommandLineTools/usr/include/c++/v1/string:1228:55
	movq	%rax, %rdi
	callq	__ZNSt3__1L16__to_raw_pointerIKcEEPT_S3_
	.loc	6 1228 48               ## /Library/Developer/CommandLineTools/usr/include/c++/v1/string:1228:48
	addq	$16, %rsp
	popq	%rbp
	retq
Ltmp79:
Lfunc_end15:
	.cfi_endproc
                                        ## -- End function
	.p2align	4, 0x90         ## -- Begin function _ZNKSt3__113basic_ostreamIcNS_11char_traitsIcEEE6sentrycvbEv
__ZNKSt3__113basic_ostreamIcNS_11char_traitsIcEEE6sentrycvbEv: ## @_ZNKSt3__113basic_ostreamIcNS_11char_traitsIcEEE6sentrycvbEv
Lfunc_begin16:
	.loc	17 254 0 is_stmt 1      ## /Library/Developer/CommandLineTools/usr/include/c++/v1/ostream:254:0
	.cfi_startproc
## %bb.0:                               ## %entry
	pushq	%rbp
	.cfi_def_cfa_offset 16
	.cfi_offset %rbp, -16
	movq	%rsp, %rbp
	.cfi_def_cfa_register %rbp
	movq	%rdi, -8(%rbp)
	movq	-8(%rbp), %rax
Ltmp80:
	.loc	17 254 39 prologue_end  ## /Library/Developer/CommandLineTools/usr/include/c++/v1/ostream:254:39
	movb	(%rax), %cl
	.loc	17 254 32 is_stmt 0     ## /Library/Developer/CommandLineTools/usr/include/c++/v1/ostream:254:32
	andb	$1, %cl
	movzbl	%cl, %eax
	popq	%rbp
	retq
Ltmp81:
Lfunc_end16:
	.cfi_endproc
                                        ## -- End function
	.private_extern	__ZNSt3__116__pad_and_outputIcNS_11char_traitsIcEEEENS_19ostreambuf_iteratorIT_T0_EES6_PKS4_S8_S8_RNS_8ios_baseES4_ ## -- Begin function _ZNSt3__116__pad_and_outputIcNS_11char_traitsIcEEEENS_19ostreambuf_iteratorIT_T0_EES6_PKS4_S8_S8_RNS_8ios_baseES4_
	.globl	__ZNSt3__116__pad_and_outputIcNS_11char_traitsIcEEEENS_19ostreambuf_iteratorIT_T0_EES6_PKS4_S8_S8_RNS_8ios_baseES4_
	.weak_definition	__ZNSt3__116__pad_and_outputIcNS_11char_traitsIcEEEENS_19ostreambuf_iteratorIT_T0_EES6_PKS4_S8_S8_RNS_8ios_baseES4_
	.p2align	4, 0x90
__ZNSt3__116__pad_and_outputIcNS_11char_traitsIcEEEENS_19ostreambuf_iteratorIT_T0_EES6_PKS4_S8_S8_RNS_8ios_baseES4_: ## @_ZNSt3__116__pad_and_outputIcNS_11char_traitsIcEEEENS_19ostreambuf_iteratorIT_T0_EES6_PKS4_S8_S8_RNS_8ios_baseES4_
Lfunc_begin17:
	.file	63 "/Library/Developer/CommandLineTools/usr/include/c++/v1/locale"
	.loc	63 1385 0 is_stmt 1     ## /Library/Developer/CommandLineTools/usr/include/c++/v1/locale:1385:0
	.cfi_startproc
	.cfi_personality 155, ___gxx_personality_v0
	.cfi_lsda 16, Lexception2
## %bb.0:                               ## %entry
	pushq	%rbp
	.cfi_def_cfa_offset 16
	.cfi_offset %rbp, -16
	movq	%rsp, %rbp
	.cfi_def_cfa_register %rbp
	subq	$144, %rsp
                                        ## kill: def $r9b killed $r9b killed $r9d
	movq	%rdi, -16(%rbp)
	movq	%rsi, -24(%rbp)
	movq	%rdx, -32(%rbp)
	movq	%rcx, -40(%rbp)
	movq	%r8, -48(%rbp)
	movb	%r9b, -49(%rbp)
Ltmp85:
	.loc	63 1386 21 prologue_end ## /Library/Developer/CommandLineTools/usr/include/c++/v1/locale:1386:21
	cmpq	$0, -16(%rbp)
Ltmp86:
	.loc	63 1386 9 is_stmt 0     ## /Library/Developer/CommandLineTools/usr/include/c++/v1/locale:1386:9
	jne	LBB17_2
## %bb.1:                               ## %if.then
Ltmp87:
	.loc	63 1387 16 is_stmt 1    ## /Library/Developer/CommandLineTools/usr/include/c++/v1/locale:1387:16
	movq	-16(%rbp), %rax
	movq	%rax, -8(%rbp)
	.loc	63 1387 9 is_stmt 0     ## /Library/Developer/CommandLineTools/usr/include/c++/v1/locale:1387:9
	jmp	LBB17_22
Ltmp88:
LBB17_2:                                ## %if.end
	.loc	63 1388 23 is_stmt 1    ## /Library/Developer/CommandLineTools/usr/include/c++/v1/locale:1388:23
	movq	-40(%rbp), %rax
	.loc	63 1388 30 is_stmt 0    ## /Library/Developer/CommandLineTools/usr/include/c++/v1/locale:1388:30
	movq	-24(%rbp), %rcx
	.loc	63 1388 28              ## /Library/Developer/CommandLineTools/usr/include/c++/v1/locale:1388:28
	subq	%rcx, %rax
	.loc	63 1388 16              ## /Library/Developer/CommandLineTools/usr/include/c++/v1/locale:1388:16
	movq	%rax, -64(%rbp)
	.loc	63 1389 23 is_stmt 1    ## /Library/Developer/CommandLineTools/usr/include/c++/v1/locale:1389:23
	movq	-48(%rbp), %rdi
	.loc	63 1389 29 is_stmt 0    ## /Library/Developer/CommandLineTools/usr/include/c++/v1/locale:1389:29
	callq	__ZNKSt3__18ios_base5widthEv
	.loc	63 1389 16              ## /Library/Developer/CommandLineTools/usr/include/c++/v1/locale:1389:16
	movq	%rax, -72(%rbp)
Ltmp89:
	.loc	63 1390 9 is_stmt 1     ## /Library/Developer/CommandLineTools/usr/include/c++/v1/locale:1390:9
	movq	-72(%rbp), %rax
	.loc	63 1390 14 is_stmt 0    ## /Library/Developer/CommandLineTools/usr/include/c++/v1/locale:1390:14
	cmpq	-64(%rbp), %rax
Ltmp90:
	.loc	63 1390 9               ## /Library/Developer/CommandLineTools/usr/include/c++/v1/locale:1390:9
	jle	LBB17_4
## %bb.3:                               ## %if.then2
Ltmp91:
	.loc	63 1391 17 is_stmt 1    ## /Library/Developer/CommandLineTools/usr/include/c++/v1/locale:1391:17
	movq	-64(%rbp), %rax
	.loc	63 1391 14 is_stmt 0    ## /Library/Developer/CommandLineTools/usr/include/c++/v1/locale:1391:14
	movq	-72(%rbp), %rcx
	subq	%rax, %rcx
	movq	%rcx, -72(%rbp)
	.loc	63 1391 9               ## /Library/Developer/CommandLineTools/usr/include/c++/v1/locale:1391:9
	jmp	LBB17_5
LBB17_4:                                ## %if.else
	.loc	63 1393 14 is_stmt 1    ## /Library/Developer/CommandLineTools/usr/include/c++/v1/locale:1393:14
	movq	$0, -72(%rbp)
Ltmp92:
LBB17_5:                                ## %if.end3
	.loc	63 1394 23              ## /Library/Developer/CommandLineTools/usr/include/c++/v1/locale:1394:23
	movq	-32(%rbp), %rax
	.loc	63 1394 30 is_stmt 0    ## /Library/Developer/CommandLineTools/usr/include/c++/v1/locale:1394:30
	movq	-24(%rbp), %rcx
	.loc	63 1394 28              ## /Library/Developer/CommandLineTools/usr/include/c++/v1/locale:1394:28
	subq	%rcx, %rax
	.loc	63 1394 16              ## /Library/Developer/CommandLineTools/usr/include/c++/v1/locale:1394:16
	movq	%rax, -80(%rbp)
Ltmp93:
	.loc	63 1395 14 is_stmt 1    ## /Library/Developer/CommandLineTools/usr/include/c++/v1/locale:1395:14
	cmpq	$0, -80(%rbp)
Ltmp94:
	.loc	63 1395 9 is_stmt 0     ## /Library/Developer/CommandLineTools/usr/include/c++/v1/locale:1395:9
	jle	LBB17_9
## %bb.6:                               ## %if.then8
Ltmp95:
	.loc	63 1397 17 is_stmt 1    ## /Library/Developer/CommandLineTools/usr/include/c++/v1/locale:1397:17
	movq	-16(%rbp), %rdi
	.loc	63 1397 32 is_stmt 0    ## /Library/Developer/CommandLineTools/usr/include/c++/v1/locale:1397:32
	movq	-24(%rbp), %rsi
	.loc	63 1397 38              ## /Library/Developer/CommandLineTools/usr/include/c++/v1/locale:1397:38
	movq	-80(%rbp), %rdx
	.loc	63 1397 26              ## /Library/Developer/CommandLineTools/usr/include/c++/v1/locale:1397:26
	callq	__ZNSt3__115basic_streambufIcNS_11char_traitsIcEEE5sputnEPKcl
	.loc	63 1397 44              ## /Library/Developer/CommandLineTools/usr/include/c++/v1/locale:1397:44
	cmpq	-80(%rbp), %rax
Ltmp96:
	.loc	63 1397 13              ## /Library/Developer/CommandLineTools/usr/include/c++/v1/locale:1397:13
	je	LBB17_8
## %bb.7:                               ## %if.then12
Ltmp97:
	.loc	63 1399 25 is_stmt 1    ## /Library/Developer/CommandLineTools/usr/include/c++/v1/locale:1399:25
	movq	$0, -16(%rbp)
	.loc	63 1400 20              ## /Library/Developer/CommandLineTools/usr/include/c++/v1/locale:1400:20
	movq	-16(%rbp), %rax
	movq	%rax, -8(%rbp)
	.loc	63 1400 13 is_stmt 0    ## /Library/Developer/CommandLineTools/usr/include/c++/v1/locale:1400:13
	jmp	LBB17_22
Ltmp98:
LBB17_8:                                ## %if.end14
	.loc	63 1402 5 is_stmt 1     ## /Library/Developer/CommandLineTools/usr/include/c++/v1/locale:1402:5
	jmp	LBB17_9
Ltmp99:
LBB17_9:                                ## %if.end15
	.loc	63 1403 14              ## /Library/Developer/CommandLineTools/usr/include/c++/v1/locale:1403:14
	cmpq	$0, -72(%rbp)
Ltmp100:
	.loc	63 1403 9 is_stmt 0     ## /Library/Developer/CommandLineTools/usr/include/c++/v1/locale:1403:9
	jle	LBB17_17
## %bb.10:                              ## %if.then17
Ltmp101:
	.loc	63 1405 44 is_stmt 1    ## /Library/Developer/CommandLineTools/usr/include/c++/v1/locale:1405:44
	movq	-72(%rbp), %rsi
	.loc	63 1405 50 is_stmt 0    ## /Library/Developer/CommandLineTools/usr/include/c++/v1/locale:1405:50
	movsbl	-49(%rbp), %edx
	leaq	-104(%rbp), %rax
	.loc	63 1405 39              ## /Library/Developer/CommandLineTools/usr/include/c++/v1/locale:1405:39
	movq	%rax, %rdi
	movq	%rax, -128(%rbp)        ## 8-byte Spill
	callq	__ZNSt3__112basic_stringIcNS_11char_traitsIcEENS_9allocatorIcEEEC1Emc
Ltmp102:
	.loc	63 1406 17 is_stmt 1    ## /Library/Developer/CommandLineTools/usr/include/c++/v1/locale:1406:17
	movq	-16(%rbp), %rdi
	movq	-128(%rbp), %rax        ## 8-byte Reload
	movq	%rdi, -136(%rbp)        ## 8-byte Spill
	.loc	63 1406 37 is_stmt 0    ## /Library/Developer/CommandLineTools/usr/include/c++/v1/locale:1406:37
	movq	%rax, %rdi
	callq	__ZNKSt3__112basic_stringIcNS_11char_traitsIcEENS_9allocatorIcEEE4dataEv
	.loc	63 1406 45              ## /Library/Developer/CommandLineTools/usr/include/c++/v1/locale:1406:45
	movq	-72(%rbp), %rdx
Ltmp82:
	movq	-136(%rbp), %rdi        ## 8-byte Reload
	.loc	63 1406 26              ## /Library/Developer/CommandLineTools/usr/include/c++/v1/locale:1406:26
	movq	%rax, %rsi
	callq	__ZNSt3__115basic_streambufIcNS_11char_traitsIcEEE5sputnEPKcl
Ltmp83:
	movq	%rax, -144(%rbp)        ## 8-byte Spill
	jmp	LBB17_11
LBB17_11:                               ## %invoke.cont
	.loc	63 0 26                 ## /Library/Developer/CommandLineTools/usr/include/c++/v1/locale:0:26
	movq	-144(%rbp), %rax        ## 8-byte Reload
	.loc	63 1406 51              ## /Library/Developer/CommandLineTools/usr/include/c++/v1/locale:1406:51
	cmpq	-72(%rbp), %rax
Ltmp103:
	.loc	63 1406 13              ## /Library/Developer/CommandLineTools/usr/include/c++/v1/locale:1406:13
	je	LBB17_14
## %bb.12:                              ## %if.then22
Ltmp104:
	.loc	63 1408 25 is_stmt 1    ## /Library/Developer/CommandLineTools/usr/include/c++/v1/locale:1408:25
	movq	$0, -16(%rbp)
	.loc	63 1409 20              ## /Library/Developer/CommandLineTools/usr/include/c++/v1/locale:1409:20
	movq	-16(%rbp), %rax
	movq	%rax, -8(%rbp)
	movl	$1, -120(%rbp)
	.loc	63 1409 13 is_stmt 0    ## /Library/Developer/CommandLineTools/usr/include/c++/v1/locale:1409:13
	jmp	LBB17_15
Ltmp105:
LBB17_13:                               ## %lpad
Ltmp84:
                                        ## kill: def $edx killed $edx killed $rdx
	.loc	63 1423 1 is_stmt 1     ## /Library/Developer/CommandLineTools/usr/include/c++/v1/locale:1423:1
	movq	%rax, -112(%rbp)
	movl	%edx, -116(%rbp)
Ltmp106:
	.loc	63 1411 5               ## /Library/Developer/CommandLineTools/usr/include/c++/v1/locale:1411:5
	leaq	-104(%rbp), %rdi
	callq	__ZNSt3__112basic_stringIcNS_11char_traitsIcEENS_9allocatorIcEEED1Ev
	jmp	LBB17_23
LBB17_14:                               ## %if.end24
	movl	$0, -120(%rbp)
LBB17_15:                               ## %cleanup
	.loc	63 0 5 is_stmt 0        ## /Library/Developer/CommandLineTools/usr/include/c++/v1/locale:0:5
	leaq	-104(%rbp), %rdi
	.loc	63 1411 5               ## /Library/Developer/CommandLineTools/usr/include/c++/v1/locale:1411:5
	callq	__ZNSt3__112basic_stringIcNS_11char_traitsIcEENS_9allocatorIcEEED1Ev
	movl	-120(%rbp), %eax
	testl	%eax, %eax
	je	LBB17_16
	jmp	LBB17_25
LBB17_25:                               ## %cleanup
	.loc	63 0 5                  ## /Library/Developer/CommandLineTools/usr/include/c++/v1/locale:0:5
	jmp	LBB17_22
LBB17_16:                               ## %cleanup.cont
Ltmp107:
	.loc	63 1411 5               ## /Library/Developer/CommandLineTools/usr/include/c++/v1/locale:1411:5
	jmp	LBB17_17
Ltmp108:
LBB17_17:                               ## %if.end25
	.loc	63 1412 12 is_stmt 1    ## /Library/Developer/CommandLineTools/usr/include/c++/v1/locale:1412:12
	movq	-40(%rbp), %rax
	.loc	63 1412 19 is_stmt 0    ## /Library/Developer/CommandLineTools/usr/include/c++/v1/locale:1412:19
	movq	-32(%rbp), %rcx
	.loc	63 1412 17              ## /Library/Developer/CommandLineTools/usr/include/c++/v1/locale:1412:17
	subq	%rcx, %rax
	.loc	63 1412 10              ## /Library/Developer/CommandLineTools/usr/include/c++/v1/locale:1412:10
	movq	%rax, -80(%rbp)
Ltmp109:
	.loc	63 1413 14 is_stmt 1    ## /Library/Developer/CommandLineTools/usr/include/c++/v1/locale:1413:14
	cmpq	$0, -80(%rbp)
Ltmp110:
	.loc	63 1413 9 is_stmt 0     ## /Library/Developer/CommandLineTools/usr/include/c++/v1/locale:1413:9
	jle	LBB17_21
## %bb.18:                              ## %if.then30
Ltmp111:
	.loc	63 1415 17 is_stmt 1    ## /Library/Developer/CommandLineTools/usr/include/c++/v1/locale:1415:17
	movq	-16(%rbp), %rdi
	.loc	63 1415 32 is_stmt 0    ## /Library/Developer/CommandLineTools/usr/include/c++/v1/locale:1415:32
	movq	-32(%rbp), %rsi
	.loc	63 1415 38              ## /Library/Developer/CommandLineTools/usr/include/c++/v1/locale:1415:38
	movq	-80(%rbp), %rdx
	.loc	63 1415 26              ## /Library/Developer/CommandLineTools/usr/include/c++/v1/locale:1415:26
	callq	__ZNSt3__115basic_streambufIcNS_11char_traitsIcEEE5sputnEPKcl
	.loc	63 1415 44              ## /Library/Developer/CommandLineTools/usr/include/c++/v1/locale:1415:44
	cmpq	-80(%rbp), %rax
Ltmp112:
	.loc	63 1415 13              ## /Library/Developer/CommandLineTools/usr/include/c++/v1/locale:1415:13
	je	LBB17_20
## %bb.19:                              ## %if.then34
Ltmp113:
	.loc	63 1417 25 is_stmt 1    ## /Library/Developer/CommandLineTools/usr/include/c++/v1/locale:1417:25
	movq	$0, -16(%rbp)
	.loc	63 1418 20              ## /Library/Developer/CommandLineTools/usr/include/c++/v1/locale:1418:20
	movq	-16(%rbp), %rax
	movq	%rax, -8(%rbp)
	.loc	63 1418 13 is_stmt 0    ## /Library/Developer/CommandLineTools/usr/include/c++/v1/locale:1418:13
	jmp	LBB17_22
Ltmp114:
LBB17_20:                               ## %if.end36
	.loc	63 1420 5 is_stmt 1     ## /Library/Developer/CommandLineTools/usr/include/c++/v1/locale:1420:5
	jmp	LBB17_21
Ltmp115:
LBB17_21:                               ## %if.end37
	.loc	63 0 5 is_stmt 0        ## /Library/Developer/CommandLineTools/usr/include/c++/v1/locale:0:5
	xorl	%eax, %eax
	movl	%eax, %esi
	.loc	63 1421 5 is_stmt 1     ## /Library/Developer/CommandLineTools/usr/include/c++/v1/locale:1421:5
	movq	-48(%rbp), %rdi
	.loc	63 1421 11 is_stmt 0    ## /Library/Developer/CommandLineTools/usr/include/c++/v1/locale:1421:11
	callq	__ZNSt3__18ios_base5widthEl
	.loc	63 1422 12 is_stmt 1    ## /Library/Developer/CommandLineTools/usr/include/c++/v1/locale:1422:12
	movq	-16(%rbp), %rcx
	movq	%rcx, -8(%rbp)
LBB17_22:                               ## %return
	.loc	63 1423 1               ## /Library/Developer/CommandLineTools/usr/include/c++/v1/locale:1423:1
	movq	-8(%rbp), %rax
	addq	$144, %rsp
	popq	%rbp
	retq
LBB17_23:                               ## %eh.resume
Ltmp116:
	.loc	63 1411 5               ## /Library/Developer/CommandLineTools/usr/include/c++/v1/locale:1411:5
	movq	-112(%rbp), %rdi
	callq	__Unwind_Resume
	ud2
Ltmp117:
## %bb.24:                              ## %unreachable
	.loc	63 0 5 is_stmt 0        ## /Library/Developer/CommandLineTools/usr/include/c++/v1/locale:0:5
	ud2
Lfunc_end17:
	.cfi_endproc
	.section	__TEXT,__gcc_except_tab
	.p2align	2
GCC_except_table17:
Lexception2:
	.byte	255                     ## @LPStart Encoding = omit
	.byte	255                     ## @TType Encoding = omit
	.byte	1                       ## Call site Encoding = uleb128
	.uleb128 Lcst_end2-Lcst_begin2
Lcst_begin2:
	.uleb128 Lfunc_begin17-Lfunc_begin17 ## >> Call Site 1 <<
	.uleb128 Ltmp82-Lfunc_begin17   ##   Call between Lfunc_begin17 and Ltmp82
	.byte	0                       ##     has no landing pad
	.byte	0                       ##   On action: cleanup
	.uleb128 Ltmp82-Lfunc_begin17   ## >> Call Site 2 <<
	.uleb128 Ltmp83-Ltmp82          ##   Call between Ltmp82 and Ltmp83
	.uleb128 Ltmp84-Lfunc_begin17   ##     jumps to Ltmp84
	.byte	0                       ##   On action: cleanup
	.uleb128 Ltmp83-Lfunc_begin17   ## >> Call Site 3 <<
	.uleb128 Lfunc_end17-Ltmp83     ##   Call between Ltmp83 and Lfunc_end17
	.byte	0                       ##     has no landing pad
	.byte	0                       ##   On action: cleanup
Lcst_end2:
	.p2align	2
                                        ## -- End function
	.section	__TEXT,__text,regular,pure_instructions
	.p2align	4, 0x90         ## -- Begin function _ZNSt3__119ostreambuf_iteratorIcNS_11char_traitsIcEEEC1ERNS_13basic_ostreamIcS2_EE
__ZNSt3__119ostreambuf_iteratorIcNS_11char_traitsIcEEEC1ERNS_13basic_ostreamIcS2_EE: ## @_ZNSt3__119ostreambuf_iteratorIcNS_11char_traitsIcEEEC1ERNS_13basic_ostreamIcS2_EE
Lfunc_begin18:
	.loc	15 1050 0 is_stmt 1     ## /Library/Developer/CommandLineTools/usr/include/c++/v1/iterator:1050:0
	.cfi_startproc
## %bb.0:                               ## %entry
	pushq	%rbp
	.cfi_def_cfa_offset 16
	.cfi_offset %rbp, -16
	movq	%rsp, %rbp
	.cfi_def_cfa_register %rbp
	subq	$16, %rsp
	movq	%rdi, -8(%rbp)
	movq	%rsi, -16(%rbp)
	movq	-8(%rbp), %rdi
Ltmp118:
	.loc	15 1050 32 prologue_end ## /Library/Developer/CommandLineTools/usr/include/c++/v1/iterator:1050:32
	movq	-16(%rbp), %rsi
	callq	__ZNSt3__119ostreambuf_iteratorIcNS_11char_traitsIcEEEC2ERNS_13basic_ostreamIcS2_EE
	.loc	15 1050 33 is_stmt 0    ## /Library/Developer/CommandLineTools/usr/include/c++/v1/iterator:1050:33
	addq	$16, %rsp
	popq	%rbp
	retq
Ltmp119:
Lfunc_end18:
	.cfi_endproc
                                        ## -- End function
	.p2align	4, 0x90         ## -- Begin function _ZNKSt3__18ios_base5flagsEv
__ZNKSt3__18ios_base5flagsEv:           ## @_ZNKSt3__18ios_base5flagsEv
Lfunc_begin19:
	.loc	1 441 0 is_stmt 1       ## /Library/Developer/CommandLineTools/usr/include/c++/v1/ios:441:0
	.cfi_startproc
## %bb.0:                               ## %entry
	pushq	%rbp
	.cfi_def_cfa_offset 16
	.cfi_offset %rbp, -16
	movq	%rsp, %rbp
	.cfi_def_cfa_register %rbp
	movq	%rdi, -8(%rbp)
	movq	-8(%rbp), %rax
Ltmp120:
	.loc	1 442 12 prologue_end   ## /Library/Developer/CommandLineTools/usr/include/c++/v1/ios:442:12
	movl	8(%rax), %eax
	.loc	1 442 5 is_stmt 0       ## /Library/Developer/CommandLineTools/usr/include/c++/v1/ios:442:5
	popq	%rbp
	retq
Ltmp121:
Lfunc_end19:
	.cfi_endproc
                                        ## -- End function
	.p2align	4, 0x90         ## -- Begin function _ZNKSt3__19basic_iosIcNS_11char_traitsIcEEE4fillEv
__ZNKSt3__19basic_iosIcNS_11char_traitsIcEEE4fillEv: ## @_ZNKSt3__19basic_iosIcNS_11char_traitsIcEEE4fillEv
Lfunc_begin20:
	.loc	1 766 0 is_stmt 1       ## /Library/Developer/CommandLineTools/usr/include/c++/v1/ios:766:0
	.cfi_startproc
## %bb.0:                               ## %entry
	pushq	%rbp
	.cfi_def_cfa_offset 16
	.cfi_offset %rbp, -16
	movq	%rsp, %rbp
	.cfi_def_cfa_register %rbp
	subq	$16, %rsp
	movq	%rdi, -8(%rbp)
	movq	-8(%rbp), %rax
	movq	%rax, -16(%rbp)         ## 8-byte Spill
Ltmp122:
	.loc	1 767 34 prologue_end   ## /Library/Developer/CommandLineTools/usr/include/c++/v1/ios:767:34
	callq	__ZNSt3__111char_traitsIcE3eofEv
	movq	-16(%rbp), %rcx         ## 8-byte Reload
	.loc	1 767 54 is_stmt 0      ## /Library/Developer/CommandLineTools/usr/include/c++/v1/ios:767:54
	movl	144(%rcx), %esi
	.loc	1 767 9                 ## /Library/Developer/CommandLineTools/usr/include/c++/v1/ios:767:9
	movl	%eax, %edi
	callq	__ZNSt3__111char_traitsIcE11eq_int_typeEii
Ltmp123:
	.loc	1 767 9                 ## /Library/Developer/CommandLineTools/usr/include/c++/v1/ios:767:9
	testb	$1, %al
	jne	LBB20_1
	jmp	LBB20_2
LBB20_1:                                ## %if.then
	.loc	1 0 9                   ## /Library/Developer/CommandLineTools/usr/include/c++/v1/ios:0:9
	movq	-16(%rbp), %rdi         ## 8-byte Reload
Ltmp124:
	.loc	1 768 19 is_stmt 1      ## /Library/Developer/CommandLineTools/usr/include/c++/v1/ios:768:19
	movl	$32, %esi
	callq	__ZNKSt3__19basic_iosIcNS_11char_traitsIcEEE5widenEc
	movsbl	%al, %ecx
	movq	-16(%rbp), %rdx         ## 8-byte Reload
	.loc	1 768 17 is_stmt 0      ## /Library/Developer/CommandLineTools/usr/include/c++/v1/ios:768:17
	movl	%ecx, 144(%rdx)
Ltmp125:
LBB20_2:                                ## %if.end
	.loc	1 0 17                  ## /Library/Developer/CommandLineTools/usr/include/c++/v1/ios:0:17
	movq	-16(%rbp), %rax         ## 8-byte Reload
	.loc	1 769 12 is_stmt 1      ## /Library/Developer/CommandLineTools/usr/include/c++/v1/ios:769:12
	movl	144(%rax), %ecx
                                        ## kill: def $cl killed $cl killed $ecx
	.loc	1 769 5 is_stmt 0       ## /Library/Developer/CommandLineTools/usr/include/c++/v1/ios:769:5
	movsbl	%cl, %edx
	movl	%edx, %eax
	addq	$16, %rsp
	popq	%rbp
	retq
Ltmp126:
Lfunc_end20:
	.cfi_endproc
                                        ## -- End function
	.p2align	4, 0x90         ## -- Begin function _ZNKSt3__119ostreambuf_iteratorIcNS_11char_traitsIcEEE6failedEv
__ZNKSt3__119ostreambuf_iteratorIcNS_11char_traitsIcEEE6failedEv: ## @_ZNKSt3__119ostreambuf_iteratorIcNS_11char_traitsIcEEE6failedEv
Lfunc_begin21:
	.loc	15 1062 0 is_stmt 1     ## /Library/Developer/CommandLineTools/usr/include/c++/v1/iterator:1062:0
	.cfi_startproc
## %bb.0:                               ## %entry
	pushq	%rbp
	.cfi_def_cfa_offset 16
	.cfi_offset %rbp, -16
	movq	%rsp, %rbp
	.cfi_def_cfa_register %rbp
	movq	%rdi, -8(%rbp)
	movq	-8(%rbp), %rax
Ltmp127:
	.loc	15 1062 77 prologue_end ## /Library/Developer/CommandLineTools/usr/include/c++/v1/iterator:1062:77
	cmpq	$0, (%rax)
	sete	%cl
	.loc	15 1062 62 is_stmt 0    ## /Library/Developer/CommandLineTools/usr/include/c++/v1/iterator:1062:62
	andb	$1, %cl
	movzbl	%cl, %eax
	popq	%rbp
	retq
Ltmp128:
Lfunc_end21:
	.cfi_endproc
                                        ## -- End function
	.p2align	4, 0x90         ## -- Begin function _ZNSt3__19basic_iosIcNS_11char_traitsIcEEE8setstateEj
__ZNSt3__19basic_iosIcNS_11char_traitsIcEEE8setstateEj: ## @_ZNSt3__19basic_iosIcNS_11char_traitsIcEEE8setstateEj
Lfunc_begin22:
	.loc	1 614 0 is_stmt 1       ## /Library/Developer/CommandLineTools/usr/include/c++/v1/ios:614:0
	.cfi_startproc
## %bb.0:                               ## %entry
	pushq	%rbp
	.cfi_def_cfa_offset 16
	.cfi_offset %rbp, -16
	movq	%rsp, %rbp
	.cfi_def_cfa_register %rbp
	subq	$16, %rsp
	movq	%rdi, -8(%rbp)
	movl	%esi, -12(%rbp)
	movq	-8(%rbp), %rax
Ltmp129:
	.loc	1 614 82 prologue_end   ## /Library/Developer/CommandLineTools/usr/include/c++/v1/ios:614:82
	movl	-12(%rbp), %esi
	.loc	1 614 73 is_stmt 0      ## /Library/Developer/CommandLineTools/usr/include/c++/v1/ios:614:73
	movq	%rax, %rdi
	callq	__ZNSt3__18ios_base8setstateEj
	.loc	1 614 91                ## /Library/Developer/CommandLineTools/usr/include/c++/v1/ios:614:91
	addq	$16, %rsp
	popq	%rbp
	retq
Ltmp130:
Lfunc_end22:
	.cfi_endproc
                                        ## -- End function
	.private_extern	___clang_call_terminate ## -- Begin function __clang_call_terminate
	.globl	___clang_call_terminate
	.weak_definition	___clang_call_terminate
	.p2align	4, 0x90
___clang_call_terminate:                ## @__clang_call_terminate
Lfunc_begin23:
	.cfi_startproc
## %bb.0:
	pushq	%rax
	.cfi_def_cfa_offset 16
	callq	___cxa_begin_catch
	movq	%rax, (%rsp)            ## 8-byte Spill
	callq	__ZSt9terminatev
Lfunc_end23:
	.cfi_endproc
                                        ## -- End function
	.p2align	4, 0x90         ## -- Begin function _ZNKSt3__18ios_base5widthEv
__ZNKSt3__18ios_base5widthEv:           ## @_ZNKSt3__18ios_base5widthEv
Lfunc_begin24:
	.loc	1 503 0 is_stmt 1       ## /Library/Developer/CommandLineTools/usr/include/c++/v1/ios:503:0
	.cfi_startproc
## %bb.0:                               ## %entry
	pushq	%rbp
	.cfi_def_cfa_offset 16
	.cfi_offset %rbp, -16
	movq	%rsp, %rbp
	.cfi_def_cfa_register %rbp
	movq	%rdi, -8(%rbp)
	movq	-8(%rbp), %rax
Ltmp131:
	.loc	1 504 12 prologue_end   ## /Library/Developer/CommandLineTools/usr/include/c++/v1/ios:504:12
	movq	24(%rax), %rax
	.loc	1 504 5 is_stmt 0       ## /Library/Developer/CommandLineTools/usr/include/c++/v1/ios:504:5
	popq	%rbp
	retq
Ltmp132:
Lfunc_end24:
	.cfi_endproc
                                        ## -- End function
	.p2align	4, 0x90         ## -- Begin function _ZNSt3__115basic_streambufIcNS_11char_traitsIcEEE5sputnEPKcl
__ZNSt3__115basic_streambufIcNS_11char_traitsIcEEE5sputnEPKcl: ## @_ZNSt3__115basic_streambufIcNS_11char_traitsIcEEE5sputnEPKcl
Lfunc_begin25:
	.loc	16 230 0 is_stmt 1      ## /Library/Developer/CommandLineTools/usr/include/c++/v1/streambuf:230:0
	.cfi_startproc
## %bb.0:                               ## %entry
	pushq	%rbp
	.cfi_def_cfa_offset 16
	.cfi_offset %rbp, -16
	movq	%rsp, %rbp
	.cfi_def_cfa_register %rbp
	subq	$32, %rsp
	movq	%rdi, -8(%rbp)
	movq	%rsi, -16(%rbp)
	movq	%rdx, -24(%rbp)
	movq	-8(%rbp), %rax
Ltmp133:
	.loc	16 230 21 prologue_end  ## /Library/Developer/CommandLineTools/usr/include/c++/v1/streambuf:230:21
	movq	-16(%rbp), %rsi
	.loc	16 230 26 is_stmt 0     ## /Library/Developer/CommandLineTools/usr/include/c++/v1/streambuf:230:26
	movq	-24(%rbp), %rdx
	.loc	16 230 14               ## /Library/Developer/CommandLineTools/usr/include/c++/v1/streambuf:230:14
	movq	(%rax), %rcx
	movq	%rax, %rdi
	callq	*96(%rcx)
	.loc	16 230 7                ## /Library/Developer/CommandLineTools/usr/include/c++/v1/streambuf:230:7
	addq	$32, %rsp
	popq	%rbp
	retq
Ltmp134:
Lfunc_end25:
	.cfi_endproc
                                        ## -- End function
	.p2align	4, 0x90         ## -- Begin function _ZNSt3__112basic_stringIcNS_11char_traitsIcEENS_9allocatorIcEEEC1Emc
__ZNSt3__112basic_stringIcNS_11char_traitsIcEENS_9allocatorIcEEEC1Emc: ## @_ZNSt3__112basic_stringIcNS_11char_traitsIcEENS_9allocatorIcEEEC1Emc
Lfunc_begin26:
	.loc	6 1912 0 is_stmt 1      ## /Library/Developer/CommandLineTools/usr/include/c++/v1/string:1912:0
	.cfi_startproc
## %bb.0:                               ## %entry
	pushq	%rbp
	.cfi_def_cfa_offset 16
	.cfi_offset %rbp, -16
	movq	%rsp, %rbp
	.cfi_def_cfa_register %rbp
	subq	$32, %rsp
                                        ## kill: def $dl killed $dl killed $edx
	movq	%rdi, -8(%rbp)
	movq	%rsi, -16(%rbp)
	movb	%dl, -17(%rbp)
	movq	-8(%rbp), %rdi
Ltmp135:
	.loc	6 1912 1 prologue_end   ## /Library/Developer/CommandLineTools/usr/include/c++/v1/string:1912:1
	movq	-16(%rbp), %rsi
	movsbl	-17(%rbp), %edx
	callq	__ZNSt3__112basic_stringIcNS_11char_traitsIcEENS_9allocatorIcEEEC2Emc
	.loc	6 1917 1                ## /Library/Developer/CommandLineTools/usr/include/c++/v1/string:1917:1
	addq	$32, %rsp
	popq	%rbp
	retq
Ltmp136:
Lfunc_end26:
	.cfi_endproc
                                        ## -- End function
	.p2align	4, 0x90         ## -- Begin function _ZNSt3__18ios_base5widthEl
__ZNSt3__18ios_base5widthEl:            ## @_ZNSt3__18ios_base5widthEl
Lfunc_begin27:
	.loc	1 510 0                 ## /Library/Developer/CommandLineTools/usr/include/c++/v1/ios:510:0
	.cfi_startproc
## %bb.0:                               ## %entry
	pushq	%rbp
	.cfi_def_cfa_offset 16
	.cfi_offset %rbp, -16
	movq	%rsp, %rbp
	.cfi_def_cfa_register %rbp
	movq	%rdi, -8(%rbp)
	movq	%rsi, -16(%rbp)
	movq	-8(%rbp), %rax
Ltmp137:
	.loc	1 511 22 prologue_end   ## /Library/Developer/CommandLineTools/usr/include/c++/v1/ios:511:22
	movq	24(%rax), %rcx
	.loc	1 511 16 is_stmt 0      ## /Library/Developer/CommandLineTools/usr/include/c++/v1/ios:511:16
	movq	%rcx, -24(%rbp)
	.loc	1 512 16 is_stmt 1      ## /Library/Developer/CommandLineTools/usr/include/c++/v1/ios:512:16
	movq	-16(%rbp), %rcx
	.loc	1 512 14 is_stmt 0      ## /Library/Developer/CommandLineTools/usr/include/c++/v1/ios:512:14
	movq	%rcx, 24(%rax)
	.loc	1 513 12 is_stmt 1      ## /Library/Developer/CommandLineTools/usr/include/c++/v1/ios:513:12
	movq	-24(%rbp), %rax
	.loc	1 513 5 is_stmt 0       ## /Library/Developer/CommandLineTools/usr/include/c++/v1/ios:513:5
	popq	%rbp
	retq
Ltmp138:
Lfunc_end27:
	.cfi_endproc
                                        ## -- End function
	.p2align	4, 0x90         ## -- Begin function _ZNSt3__112basic_stringIcNS_11char_traitsIcEENS_9allocatorIcEEEC2Emc
__ZNSt3__112basic_stringIcNS_11char_traitsIcEENS_9allocatorIcEEEC2Emc: ## @_ZNSt3__112basic_stringIcNS_11char_traitsIcEENS_9allocatorIcEEEC2Emc
Lfunc_begin28:
	.loc	6 1912 0 is_stmt 1      ## /Library/Developer/CommandLineTools/usr/include/c++/v1/string:1912:0
	.cfi_startproc
## %bb.0:                               ## %entry
	pushq	%rbp
	.cfi_def_cfa_offset 16
	.cfi_offset %rbp, -16
	movq	%rsp, %rbp
	.cfi_def_cfa_register %rbp
	subq	$32, %rsp
                                        ## kill: def $dl killed $dl killed $edx
	movq	%rdi, -8(%rbp)
	movq	%rsi, -16(%rbp)
	movb	%dl, -17(%rbp)
	movq	-8(%rbp), %rax
Ltmp139:
	.loc	6 828 5 prologue_end    ## /Library/Developer/CommandLineTools/usr/include/c++/v1/string:828:5
	movq	%rax, %rdi
	movq	%rax, -32(%rbp)         ## 8-byte Spill
	callq	__ZNSt3__117__compressed_pairINS_12basic_stringIcNS_11char_traitsIcEENS_9allocatorIcEEE5__repES5_EC1ILb1EvEEv
Ltmp140:
	.loc	6 1913 12               ## /Library/Developer/CommandLineTools/usr/include/c++/v1/string:1913:12
	movq	-16(%rbp), %rsi
	movq	-32(%rbp), %rdi         ## 8-byte Reload
	.loc	6 1913 5 is_stmt 0      ## /Library/Developer/CommandLineTools/usr/include/c++/v1/string:1913:5
	movsbl	-17(%rbp), %edx
	callq	__ZNSt3__112basic_stringIcNS_11char_traitsIcEENS_9allocatorIcEEE6__initEmc
Ltmp141:
	.loc	6 1917 1 is_stmt 1      ## /Library/Developer/CommandLineTools/usr/include/c++/v1/string:1917:1
	addq	$32, %rsp
	popq	%rbp
	retq
Ltmp142:
Lfunc_end28:
	.cfi_endproc
                                        ## -- End function
	.p2align	4, 0x90         ## -- Begin function _ZNSt3__119ostreambuf_iteratorIcNS_11char_traitsIcEEEC2ERNS_13basic_ostreamIcS2_EE
__ZNSt3__119ostreambuf_iteratorIcNS_11char_traitsIcEEEC2ERNS_13basic_ostreamIcS2_EE: ## @_ZNSt3__119ostreambuf_iteratorIcNS_11char_traitsIcEEEC2ERNS_13basic_ostreamIcS2_EE
Lfunc_begin29:
	.loc	15 1050 0               ## /Library/Developer/CommandLineTools/usr/include/c++/v1/iterator:1050:0
	.cfi_startproc
	.cfi_personality 155, ___gxx_personality_v0
	.cfi_lsda 16, Lexception3
## %bb.0:                               ## %entry
	pushq	%rbp
	.cfi_def_cfa_offset 16
	.cfi_offset %rbp, -16
	movq	%rsp, %rbp
	.cfi_def_cfa_register %rbp
	subq	$48, %rsp
	movq	%rdi, -8(%rbp)
	movq	%rsi, -16(%rbp)
	movq	-8(%rbp), %rax
Ltmp146:
	.loc	15 1050 19 prologue_end ## /Library/Developer/CommandLineTools/usr/include/c++/v1/iterator:1050:19
	movq	-16(%rbp), %rcx
	movq	(%rcx), %rdx
	movq	-24(%rdx), %rdx
	addq	%rdx, %rcx
Ltmp143:
	.loc	15 1050 23 is_stmt 0    ## /Library/Developer/CommandLineTools/usr/include/c++/v1/iterator:1050:23
	movq	%rcx, %rdi
	movq	%rax, -24(%rbp)         ## 8-byte Spill
	callq	__ZNKSt3__19basic_iosIcNS_11char_traitsIcEEE5rdbufEv
Ltmp144:
	movq	%rax, -32(%rbp)         ## 8-byte Spill
	jmp	LBB29_1
LBB29_1:                                ## %invoke.cont
	.loc	15 0 23                 ## /Library/Developer/CommandLineTools/usr/include/c++/v1/iterator:0:23
	movq	-24(%rbp), %rax         ## 8-byte Reload
	movq	-32(%rbp), %rcx         ## 8-byte Reload
	.loc	15 1050 11              ## /Library/Developer/CommandLineTools/usr/include/c++/v1/iterator:1050:11
	movq	%rcx, (%rax)
	.loc	15 1050 33              ## /Library/Developer/CommandLineTools/usr/include/c++/v1/iterator:1050:33
	addq	$48, %rsp
	popq	%rbp
	retq
LBB29_2:                                ## %terminate.lpad
Ltmp145:
	.loc	15 1050 23              ## /Library/Developer/CommandLineTools/usr/include/c++/v1/iterator:1050:23
	movq	%rax, %rdi
	movq	%rdx, -40(%rbp)         ## 8-byte Spill
	callq	___clang_call_terminate
Ltmp147:
Lfunc_end29:
	.cfi_endproc
	.section	__TEXT,__gcc_except_tab
	.p2align	2
GCC_except_table29:
Lexception3:
	.byte	255                     ## @LPStart Encoding = omit
	.byte	155                     ## @TType Encoding = indirect pcrel sdata4
	.uleb128 Lttbase1-Lttbaseref1
Lttbaseref1:
	.byte	1                       ## Call site Encoding = uleb128
	.uleb128 Lcst_end3-Lcst_begin3
Lcst_begin3:
	.uleb128 Ltmp143-Lfunc_begin29  ## >> Call Site 1 <<
	.uleb128 Ltmp144-Ltmp143        ##   Call between Ltmp143 and Ltmp144
	.uleb128 Ltmp145-Lfunc_begin29  ##     jumps to Ltmp145
	.byte	1                       ##   On action: 1
Lcst_end3:
	.byte	1                       ## >> Action Record 1 <<
                                        ##   Catch TypeInfo 1
	.byte	0                       ##   No further actions
	.p2align	2
                                        ## >> Catch TypeInfos <<
	.long	0                       ## TypeInfo 1
Lttbase1:
	.p2align	2
                                        ## -- End function
	.section	__TEXT,__text,regular,pure_instructions
	.p2align	4, 0x90         ## -- Begin function _ZNKSt3__19basic_iosIcNS_11char_traitsIcEEE5rdbufEv
__ZNKSt3__19basic_iosIcNS_11char_traitsIcEEE5rdbufEv: ## @_ZNKSt3__19basic_iosIcNS_11char_traitsIcEEE5rdbufEv
Lfunc_begin30:
	.loc	1 720 0 is_stmt 1       ## /Library/Developer/CommandLineTools/usr/include/c++/v1/ios:720:0
	.cfi_startproc
## %bb.0:                               ## %entry
	pushq	%rbp
	.cfi_def_cfa_offset 16
	.cfi_offset %rbp, -16
	movq	%rsp, %rbp
	.cfi_def_cfa_register %rbp
	subq	$16, %rsp
	movq	%rdi, -8(%rbp)
	movq	-8(%rbp), %rax
Ltmp148:
	.loc	1 721 76 prologue_end   ## /Library/Developer/CommandLineTools/usr/include/c++/v1/ios:721:76
	movq	%rax, %rdi
	callq	__ZNKSt3__18ios_base5rdbufEv
	.loc	1 721 5 is_stmt 0       ## /Library/Developer/CommandLineTools/usr/include/c++/v1/ios:721:5
	addq	$16, %rsp
	popq	%rbp
	retq
Ltmp149:
Lfunc_end30:
	.cfi_endproc
                                        ## -- End function
	.p2align	4, 0x90         ## -- Begin function _ZNKSt3__18ios_base5rdbufEv
__ZNKSt3__18ios_base5rdbufEv:           ## @_ZNKSt3__18ios_base5rdbufEv
Lfunc_begin31:
	.loc	1 340 0 is_stmt 1       ## /Library/Developer/CommandLineTools/usr/include/c++/v1/ios:340:0
	.cfi_startproc
## %bb.0:                               ## %entry
	pushq	%rbp
	.cfi_def_cfa_offset 16
	.cfi_offset %rbp, -16
	movq	%rsp, %rbp
	.cfi_def_cfa_register %rbp
	movq	%rdi, -8(%rbp)
	movq	-8(%rbp), %rax
Ltmp150:
	.loc	1 340 59 prologue_end   ## /Library/Developer/CommandLineTools/usr/include/c++/v1/ios:340:59
	movq	40(%rax), %rax
	.loc	1 340 52 is_stmt 0      ## /Library/Developer/CommandLineTools/usr/include/c++/v1/ios:340:52
	popq	%rbp
	retq
Ltmp151:
Lfunc_end31:
	.cfi_endproc
                                        ## -- End function
	.globl	__ZNSt3__111char_traitsIcE11eq_int_typeEii ## -- Begin function _ZNSt3__111char_traitsIcE11eq_int_typeEii
	.weak_definition	__ZNSt3__111char_traitsIcE11eq_int_typeEii
	.p2align	4, 0x90
__ZNSt3__111char_traitsIcE11eq_int_typeEii: ## @_ZNSt3__111char_traitsIcE11eq_int_typeEii
Lfunc_begin32:
	.loc	11 237 0 is_stmt 1      ## /Library/Developer/CommandLineTools/usr/include/c++/v1/__string:237:0
	.cfi_startproc
## %bb.0:                               ## %entry
	pushq	%rbp
	.cfi_def_cfa_offset 16
	.cfi_offset %rbp, -16
	movq	%rsp, %rbp
	.cfi_def_cfa_register %rbp
	movl	%edi, -4(%rbp)
	movl	%esi, -8(%rbp)
Ltmp152:
	.loc	11 237 17 prologue_end  ## /Library/Developer/CommandLineTools/usr/include/c++/v1/__string:237:17
	movl	-4(%rbp), %eax
	.loc	11 237 22 is_stmt 0     ## /Library/Developer/CommandLineTools/usr/include/c++/v1/__string:237:22
	cmpl	-8(%rbp), %eax
	sete	%cl
	.loc	11 237 10               ## /Library/Developer/CommandLineTools/usr/include/c++/v1/__string:237:10
	andb	$1, %cl
	movzbl	%cl, %eax
	popq	%rbp
	retq
Ltmp153:
Lfunc_end32:
	.cfi_endproc
                                        ## -- End function
	.globl	__ZNSt3__111char_traitsIcE3eofEv ## -- Begin function _ZNSt3__111char_traitsIcE3eofEv
	.weak_definition	__ZNSt3__111char_traitsIcE3eofEv
	.p2align	4, 0x90
__ZNSt3__111char_traitsIcE3eofEv:       ## @_ZNSt3__111char_traitsIcE3eofEv
Lfunc_begin33:
	.loc	11 239 0 is_stmt 1      ## /Library/Developer/CommandLineTools/usr/include/c++/v1/__string:239:0
	.cfi_startproc
## %bb.0:                               ## %entry
	pushq	%rbp
	.cfi_def_cfa_offset 16
	.cfi_offset %rbp, -16
	movq	%rsp, %rbp
	.cfi_def_cfa_register %rbp
Ltmp154:
	.loc	11 239 10 prologue_end  ## /Library/Developer/CommandLineTools/usr/include/c++/v1/__string:239:10
	movl	$4294967295, %eax       ## imm = 0xFFFFFFFF
	popq	%rbp
	retq
Ltmp155:
Lfunc_end33:
	.cfi_endproc
                                        ## -- End function
	.p2align	4, 0x90         ## -- Begin function _ZNKSt3__19basic_iosIcNS_11char_traitsIcEEE5widenEc
__ZNKSt3__19basic_iosIcNS_11char_traitsIcEEE5widenEc: ## @_ZNKSt3__19basic_iosIcNS_11char_traitsIcEEE5widenEc
Lfunc_begin34:
	.loc	1 758 0                 ## /Library/Developer/CommandLineTools/usr/include/c++/v1/ios:758:0
	.cfi_startproc
	.cfi_personality 155, ___gxx_personality_v0
	.cfi_lsda 16, Lexception4
## %bb.0:                               ## %entry
	pushq	%rbp
	.cfi_def_cfa_offset 16
	.cfi_offset %rbp, -16
	movq	%rsp, %rbp
	.cfi_def_cfa_register %rbp
	subq	$64, %rsp
                                        ## kill: def $sil killed $sil killed $esi
	movq	%rdi, -8(%rbp)
	movb	%sil, -9(%rbp)
	movq	-8(%rbp), %rsi
	leaq	-24(%rbp), %rax
Ltmp161:
	.loc	1 759 41 prologue_end   ## /Library/Developer/CommandLineTools/usr/include/c++/v1/ios:759:41
	movq	%rax, %rdi
	movq	%rax, -48(%rbp)         ## 8-byte Spill
	callq	__ZNKSt3__18ios_base6getlocEv
Ltmp156:
	movq	-48(%rbp), %rdi         ## 8-byte Reload
	.loc	1 759 12 is_stmt 0      ## /Library/Developer/CommandLineTools/usr/include/c++/v1/ios:759:12
	callq	__ZNSt3__1L9use_facetINS_5ctypeIcEEEERKT_RKNS_6localeE
Ltmp157:
	movq	%rax, -56(%rbp)         ## 8-byte Spill
	jmp	LBB34_1
LBB34_1:                                ## %invoke.cont
	.loc	1 759 57                ## /Library/Developer/CommandLineTools/usr/include/c++/v1/ios:759:57
	movsbl	-9(%rbp), %esi
Ltmp158:
	movq	-56(%rbp), %rdi         ## 8-byte Reload
	.loc	1 759 51                ## /Library/Developer/CommandLineTools/usr/include/c++/v1/ios:759:51
	callq	__ZNKSt3__15ctypeIcE5widenEc
Ltmp159:
	movb	%al, -57(%rbp)          ## 1-byte Spill
	jmp	LBB34_2
LBB34_2:                                ## %invoke.cont2
	.loc	1 759 5                 ## /Library/Developer/CommandLineTools/usr/include/c++/v1/ios:759:5
	leaq	-24(%rbp), %rdi
	callq	__ZNSt3__16localeD1Ev
	movb	-57(%rbp), %al          ## 1-byte Reload
	movsbl	%al, %eax
	addq	$64, %rsp
	popq	%rbp
	retq
LBB34_3:                                ## %lpad
Ltmp160:
                                        ## kill: def $edx killed $edx killed $rdx
	.loc	1 760 1 is_stmt 1       ## /Library/Developer/CommandLineTools/usr/include/c++/v1/ios:760:1
	movq	%rax, -32(%rbp)
	movl	%edx, -36(%rbp)
	.loc	1 759 5                 ## /Library/Developer/CommandLineTools/usr/include/c++/v1/ios:759:5
	leaq	-24(%rbp), %rdi
	callq	__ZNSt3__16localeD1Ev
## %bb.4:                               ## %eh.resume
	movq	-32(%rbp), %rdi
	callq	__Unwind_Resume
	ud2
Ltmp162:
Lfunc_end34:
	.cfi_endproc
	.section	__TEXT,__gcc_except_tab
	.p2align	2
GCC_except_table34:
Lexception4:
	.byte	255                     ## @LPStart Encoding = omit
	.byte	255                     ## @TType Encoding = omit
	.byte	1                       ## Call site Encoding = uleb128
	.uleb128 Lcst_end4-Lcst_begin4
Lcst_begin4:
	.uleb128 Lfunc_begin34-Lfunc_begin34 ## >> Call Site 1 <<
	.uleb128 Ltmp156-Lfunc_begin34  ##   Call between Lfunc_begin34 and Ltmp156
	.byte	0                       ##     has no landing pad
	.byte	0                       ##   On action: cleanup
	.uleb128 Ltmp156-Lfunc_begin34  ## >> Call Site 2 <<
	.uleb128 Ltmp159-Ltmp156        ##   Call between Ltmp156 and Ltmp159
	.uleb128 Ltmp160-Lfunc_begin34  ##     jumps to Ltmp160
	.byte	0                       ##   On action: cleanup
	.uleb128 Ltmp159-Lfunc_begin34  ## >> Call Site 3 <<
	.uleb128 Lfunc_end34-Ltmp159    ##   Call between Ltmp159 and Lfunc_end34
	.byte	0                       ##     has no landing pad
	.byte	0                       ##   On action: cleanup
Lcst_end4:
	.p2align	2
                                        ## -- End function
	.section	__TEXT,__text,regular,pure_instructions
	.p2align	4, 0x90         ## -- Begin function _ZNSt3__1L9use_facetINS_5ctypeIcEEEERKT_RKNS_6localeE
__ZNSt3__1L9use_facetINS_5ctypeIcEEEERKT_RKNS_6localeE: ## @_ZNSt3__1L9use_facetINS_5ctypeIcEEEERKT_RKNS_6localeE
Lfunc_begin35:
	.loc	5 233 0                 ## /Library/Developer/CommandLineTools/usr/include/c++/v1/__locale:233:0
	.cfi_startproc
## %bb.0:                               ## %entry
	pushq	%rbp
	.cfi_def_cfa_offset 16
	.cfi_offset %rbp, -16
	movq	%rsp, %rbp
	.cfi_def_cfa_register %rbp
	subq	$16, %rsp
	movq	__ZNSt3__15ctypeIcE2idE@GOTPCREL(%rip), %rsi
	movq	%rdi, -8(%rbp)
Ltmp163:
	.loc	5 234 40 prologue_end   ## /Library/Developer/CommandLineTools/usr/include/c++/v1/__locale:234:40
	movq	-8(%rbp), %rdi
	.loc	5 234 44 is_stmt 0      ## /Library/Developer/CommandLineTools/usr/include/c++/v1/__locale:234:44
	callq	__ZNKSt3__16locale9use_facetERNS0_2idE
	.loc	5 234 5                 ## /Library/Developer/CommandLineTools/usr/include/c++/v1/__locale:234:5
	addq	$16, %rsp
	popq	%rbp
	retq
Ltmp164:
Lfunc_end35:
	.cfi_endproc
                                        ## -- End function
	.p2align	4, 0x90         ## -- Begin function _ZNKSt3__15ctypeIcE5widenEc
__ZNKSt3__15ctypeIcE5widenEc:           ## @_ZNKSt3__15ctypeIcE5widenEc
Lfunc_begin36:
	.loc	5 648 0 is_stmt 1       ## /Library/Developer/CommandLineTools/usr/include/c++/v1/__locale:648:0
	.cfi_startproc
## %bb.0:                               ## %entry
	pushq	%rbp
	.cfi_def_cfa_offset 16
	.cfi_offset %rbp, -16
	movq	%rsp, %rbp
	.cfi_def_cfa_register %rbp
	subq	$16, %rsp
                                        ## kill: def $sil killed $sil killed $esi
	movq	%rdi, -8(%rbp)
	movb	%sil, -9(%rbp)
	movq	-8(%rbp), %rax
Ltmp165:
	.loc	5 649 25 prologue_end   ## /Library/Developer/CommandLineTools/usr/include/c++/v1/__locale:649:25
	movb	-9(%rbp), %cl
	.loc	5 649 16 is_stmt 0      ## /Library/Developer/CommandLineTools/usr/include/c++/v1/__locale:649:16
	movq	(%rax), %rdx
	movq	%rax, %rdi
	movsbl	%cl, %esi
	callq	*56(%rdx)
	.loc	5 649 9                 ## /Library/Developer/CommandLineTools/usr/include/c++/v1/__locale:649:9
	movsbl	%al, %eax
	addq	$16, %rsp
	popq	%rbp
	retq
Ltmp166:
Lfunc_end36:
	.cfi_endproc
                                        ## -- End function
	.p2align	4, 0x90         ## -- Begin function _ZNSt3__18ios_base8setstateEj
__ZNSt3__18ios_base8setstateEj:         ## @_ZNSt3__18ios_base8setstateEj
Lfunc_begin37:
	.loc	1 528 0 is_stmt 1       ## /Library/Developer/CommandLineTools/usr/include/c++/v1/ios:528:0
	.cfi_startproc
## %bb.0:                               ## %entry
	pushq	%rbp
	.cfi_def_cfa_offset 16
	.cfi_offset %rbp, -16
	movq	%rsp, %rbp
	.cfi_def_cfa_register %rbp
	subq	$16, %rsp
	movq	%rdi, -8(%rbp)
	movl	%esi, -12(%rbp)
	movq	-8(%rbp), %rax
Ltmp167:
	.loc	1 529 11 prologue_end   ## /Library/Developer/CommandLineTools/usr/include/c++/v1/ios:529:11
	movl	32(%rax), %ecx
	.loc	1 529 22 is_stmt 0      ## /Library/Developer/CommandLineTools/usr/include/c++/v1/ios:529:22
	orl	-12(%rbp), %ecx
	.loc	1 529 5                 ## /Library/Developer/CommandLineTools/usr/include/c++/v1/ios:529:5
	movq	%rax, %rdi
	movl	%ecx, %esi
	callq	__ZNSt3__18ios_base5clearEj
	.loc	1 530 1 is_stmt 1       ## /Library/Developer/CommandLineTools/usr/include/c++/v1/ios:530:1
	addq	$16, %rsp
	popq	%rbp
	retq
Ltmp168:
Lfunc_end37:
	.cfi_endproc
                                        ## -- End function
	.p2align	4, 0x90         ## -- Begin function _ZNSt3__1L16__to_raw_pointerIKcEEPT_S3_
__ZNSt3__1L16__to_raw_pointerIKcEEPT_S3_: ## @_ZNSt3__1L16__to_raw_pointerIKcEEPT_S3_
Lfunc_begin38:
	.loc	7 1106 0                ## /Library/Developer/CommandLineTools/usr/include/c++/v1/memory:1106:0
	.cfi_startproc
## %bb.0:                               ## %entry
	pushq	%rbp
	.cfi_def_cfa_offset 16
	.cfi_offset %rbp, -16
	movq	%rsp, %rbp
	.cfi_def_cfa_register %rbp
	movq	%rdi, -8(%rbp)
Ltmp169:
	.loc	7 1107 12 prologue_end  ## /Library/Developer/CommandLineTools/usr/include/c++/v1/memory:1107:12
	movq	-8(%rbp), %rax
	.loc	7 1107 5 is_stmt 0      ## /Library/Developer/CommandLineTools/usr/include/c++/v1/memory:1107:5
	popq	%rbp
	retq
Ltmp170:
Lfunc_end38:
	.cfi_endproc
                                        ## -- End function
	.p2align	4, 0x90         ## -- Begin function _ZNKSt3__112basic_stringIcNS_11char_traitsIcEENS_9allocatorIcEEE13__get_pointerEv
__ZNKSt3__112basic_stringIcNS_11char_traitsIcEENS_9allocatorIcEEE13__get_pointerEv: ## @_ZNKSt3__112basic_stringIcNS_11char_traitsIcEENS_9allocatorIcEEE13__get_pointerEv
Lfunc_begin39:
	.loc	6 1500 0 is_stmt 1      ## /Library/Developer/CommandLineTools/usr/include/c++/v1/string:1500:0
	.cfi_startproc
## %bb.0:                               ## %entry
	pushq	%rbp
	.cfi_def_cfa_offset 16
	.cfi_offset %rbp, -16
	movq	%rsp, %rbp
	.cfi_def_cfa_register %rbp
	subq	$32, %rsp
	movq	%rdi, -8(%rbp)
	movq	-8(%rbp), %rax
Ltmp171:
	.loc	6 1500 17 prologue_end  ## /Library/Developer/CommandLineTools/usr/include/c++/v1/string:1500:17
	movq	%rax, %rdi
	movq	%rax, -16(%rbp)         ## 8-byte Spill
	callq	__ZNKSt3__112basic_stringIcNS_11char_traitsIcEENS_9allocatorIcEEE9__is_longEv
	testb	$1, %al
	jne	LBB39_1
	jmp	LBB39_2
LBB39_1:                                ## %cond.true
	.loc	6 0 17 is_stmt 0        ## /Library/Developer/CommandLineTools/usr/include/c++/v1/string:0:17
	movq	-16(%rbp), %rdi         ## 8-byte Reload
	.loc	6 1500 31               ## /Library/Developer/CommandLineTools/usr/include/c++/v1/string:1500:31
	callq	__ZNKSt3__112basic_stringIcNS_11char_traitsIcEENS_9allocatorIcEEE18__get_long_pointerEv
	movq	%rax, -24(%rbp)         ## 8-byte Spill
	.loc	6 1500 17               ## /Library/Developer/CommandLineTools/usr/include/c++/v1/string:1500:17
	jmp	LBB39_3
LBB39_2:                                ## %cond.false
	.loc	6 0 17                  ## /Library/Developer/CommandLineTools/usr/include/c++/v1/string:0:17
	movq	-16(%rbp), %rdi         ## 8-byte Reload
	.loc	6 1500 54               ## /Library/Developer/CommandLineTools/usr/include/c++/v1/string:1500:54
	callq	__ZNKSt3__112basic_stringIcNS_11char_traitsIcEENS_9allocatorIcEEE19__get_short_pointerEv
	movq	%rax, -24(%rbp)         ## 8-byte Spill
LBB39_3:                                ## %cond.end
	.loc	6 0 54                  ## /Library/Developer/CommandLineTools/usr/include/c++/v1/string:0:54
	movq	-24(%rbp), %rax         ## 8-byte Reload
	.loc	6 1500 10               ## /Library/Developer/CommandLineTools/usr/include/c++/v1/string:1500:10
	addq	$32, %rsp
	popq	%rbp
	retq
Ltmp172:
Lfunc_end39:
	.cfi_endproc
                                        ## -- End function
	.p2align	4, 0x90         ## -- Begin function _ZNKSt3__112basic_stringIcNS_11char_traitsIcEENS_9allocatorIcEEE9__is_longEv
__ZNKSt3__112basic_stringIcNS_11char_traitsIcEENS_9allocatorIcEEE9__is_longEv: ## @_ZNKSt3__112basic_stringIcNS_11char_traitsIcEENS_9allocatorIcEEE9__is_longEv
Lfunc_begin40:
	.loc	6 1406 0 is_stmt 1      ## /Library/Developer/CommandLineTools/usr/include/c++/v1/string:1406:0
	.cfi_startproc
## %bb.0:                               ## %entry
	pushq	%rbp
	.cfi_def_cfa_offset 16
	.cfi_offset %rbp, -16
	movq	%rsp, %rbp
	.cfi_def_cfa_register %rbp
	subq	$16, %rsp
	movq	%rdi, -8(%rbp)
	movq	-8(%rbp), %rdi
Ltmp173:
	.loc	6 1406 27 prologue_end  ## /Library/Developer/CommandLineTools/usr/include/c++/v1/string:1406:27
	callq	__ZNKSt3__117__compressed_pairINS_12basic_stringIcNS_11char_traitsIcEENS_9allocatorIcEEE5__repES5_E5firstEv
	.loc	6 1406 22 is_stmt 0     ## /Library/Developer/CommandLineTools/usr/include/c++/v1/string:1406:22
	movzbl	(%rax), %ecx
	movl	%ecx, %eax
	.loc	6 1406 47               ## /Library/Developer/CommandLineTools/usr/include/c++/v1/string:1406:47
	andq	$1, %rax
	.loc	6 1406 22               ## /Library/Developer/CommandLineTools/usr/include/c++/v1/string:1406:22
	cmpq	$0, %rax
	setne	%dl
	.loc	6 1406 10               ## /Library/Developer/CommandLineTools/usr/include/c++/v1/string:1406:10
	andb	$1, %dl
	movzbl	%dl, %eax
	addq	$16, %rsp
	popq	%rbp
	retq
Ltmp174:
Lfunc_end40:
	.cfi_endproc
                                        ## -- End function
	.p2align	4, 0x90         ## -- Begin function _ZNKSt3__112basic_stringIcNS_11char_traitsIcEENS_9allocatorIcEEE18__get_long_pointerEv
__ZNKSt3__112basic_stringIcNS_11char_traitsIcEENS_9allocatorIcEEE18__get_long_pointerEv: ## @_ZNKSt3__112basic_stringIcNS_11char_traitsIcEENS_9allocatorIcEEE18__get_long_pointerEv
Lfunc_begin41:
	.loc	6 1488 0 is_stmt 1      ## /Library/Developer/CommandLineTools/usr/include/c++/v1/string:1488:0
	.cfi_startproc
## %bb.0:                               ## %entry
	pushq	%rbp
	.cfi_def_cfa_offset 16
	.cfi_offset %rbp, -16
	movq	%rsp, %rbp
	.cfi_def_cfa_register %rbp
	subq	$16, %rsp
	movq	%rdi, -8(%rbp)
	movq	-8(%rbp), %rdi
Ltmp175:
	.loc	6 1488 22 prologue_end  ## /Library/Developer/CommandLineTools/usr/include/c++/v1/string:1488:22
	callq	__ZNKSt3__117__compressed_pairINS_12basic_stringIcNS_11char_traitsIcEENS_9allocatorIcEEE5__repES5_E5firstEv
	.loc	6 1488 34 is_stmt 0     ## /Library/Developer/CommandLineTools/usr/include/c++/v1/string:1488:34
	movq	16(%rax), %rax
	.loc	6 1488 10               ## /Library/Developer/CommandLineTools/usr/include/c++/v1/string:1488:10
	addq	$16, %rsp
	popq	%rbp
	retq
Ltmp176:
Lfunc_end41:
	.cfi_endproc
                                        ## -- End function
	.p2align	4, 0x90         ## -- Begin function _ZNKSt3__112basic_stringIcNS_11char_traitsIcEENS_9allocatorIcEEE19__get_short_pointerEv
__ZNKSt3__112basic_stringIcNS_11char_traitsIcEENS_9allocatorIcEEE19__get_short_pointerEv: ## @_ZNKSt3__112basic_stringIcNS_11char_traitsIcEENS_9allocatorIcEEE19__get_short_pointerEv
Lfunc_begin42:
	.loc	6 1494 0 is_stmt 1      ## /Library/Developer/CommandLineTools/usr/include/c++/v1/string:1494:0
	.cfi_startproc
## %bb.0:                               ## %entry
	pushq	%rbp
	.cfi_def_cfa_offset 16
	.cfi_offset %rbp, -16
	movq	%rsp, %rbp
	.cfi_def_cfa_register %rbp
	subq	$16, %rsp
	movq	%rdi, -8(%rbp)
	movq	-8(%rbp), %rdi
Ltmp177:
	.loc	6 1494 64 prologue_end  ## /Library/Developer/CommandLineTools/usr/include/c++/v1/string:1494:64
	callq	__ZNKSt3__117__compressed_pairINS_12basic_stringIcNS_11char_traitsIcEENS_9allocatorIcEEE5__repES5_E5firstEv
	.loc	6 1494 76 is_stmt 0     ## /Library/Developer/CommandLineTools/usr/include/c++/v1/string:1494:76
	addq	$1, %rax
	.loc	6 1494 17               ## /Library/Developer/CommandLineTools/usr/include/c++/v1/string:1494:17
	movq	%rax, %rdi
	callq	__ZNSt3__114pointer_traitsIPKcE10pointer_toERS1_
	.loc	6 1494 10               ## /Library/Developer/CommandLineTools/usr/include/c++/v1/string:1494:10
	addq	$16, %rsp
	popq	%rbp
	retq
Ltmp178:
Lfunc_end42:
	.cfi_endproc
                                        ## -- End function
	.p2align	4, 0x90         ## -- Begin function _ZNKSt3__117__compressed_pairINS_12basic_stringIcNS_11char_traitsIcEENS_9allocatorIcEEE5__repES5_E5firstEv
__ZNKSt3__117__compressed_pairINS_12basic_stringIcNS_11char_traitsIcEENS_9allocatorIcEEE5__repES5_E5firstEv: ## @_ZNKSt3__117__compressed_pairINS_12basic_stringIcNS_11char_traitsIcEENS_9allocatorIcEEE5__repES5_E5firstEv
Lfunc_begin43:
	.loc	7 2280 0 is_stmt 1      ## /Library/Developer/CommandLineTools/usr/include/c++/v1/memory:2280:0
	.cfi_startproc
## %bb.0:                               ## %entry
	pushq	%rbp
	.cfi_def_cfa_offset 16
	.cfi_offset %rbp, -16
	movq	%rsp, %rbp
	.cfi_def_cfa_register %rbp
	subq	$16, %rsp
	movq	%rdi, -8(%rbp)
	movq	-8(%rbp), %rax
Ltmp179:
	.loc	7 2281 46 prologue_end  ## /Library/Developer/CommandLineTools/usr/include/c++/v1/memory:2281:46
	movq	%rax, %rdi
	callq	__ZNKSt3__122__compressed_pair_elemINS_12basic_stringIcNS_11char_traitsIcEENS_9allocatorIcEEE5__repELi0ELb0EE5__getEv
	.loc	7 2281 5 is_stmt 0      ## /Library/Developer/CommandLineTools/usr/include/c++/v1/memory:2281:5
	addq	$16, %rsp
	popq	%rbp
	retq
Ltmp180:
Lfunc_end43:
	.cfi_endproc
                                        ## -- End function
	.p2align	4, 0x90         ## -- Begin function _ZNKSt3__122__compressed_pair_elemINS_12basic_stringIcNS_11char_traitsIcEENS_9allocatorIcEEE5__repELi0ELb0EE5__getEv
__ZNKSt3__122__compressed_pair_elemINS_12basic_stringIcNS_11char_traitsIcEENS_9allocatorIcEEE5__repELi0ELb0EE5__getEv: ## @_ZNKSt3__122__compressed_pair_elemINS_12basic_stringIcNS_11char_traitsIcEENS_9allocatorIcEEE5__repELi0ELb0EE5__getEv
Lfunc_begin44:
	.loc	7 2162 0 is_stmt 1      ## /Library/Developer/CommandLineTools/usr/include/c++/v1/memory:2162:0
	.cfi_startproc
## %bb.0:                               ## %entry
	pushq	%rbp
	.cfi_def_cfa_offset 16
	.cfi_offset %rbp, -16
	movq	%rsp, %rbp
	.cfi_def_cfa_register %rbp
	movq	%rdi, -8(%rbp)
	movq	-8(%rbp), %rax
Ltmp181:
	.loc	7 2162 45 prologue_end  ## /Library/Developer/CommandLineTools/usr/include/c++/v1/memory:2162:45
	popq	%rbp
	retq
Ltmp182:
Lfunc_end44:
	.cfi_endproc
                                        ## -- End function
	.p2align	4, 0x90         ## -- Begin function _ZNSt3__114pointer_traitsIPKcE10pointer_toERS1_
__ZNSt3__114pointer_traitsIPKcE10pointer_toERS1_: ## @_ZNSt3__114pointer_traitsIPKcE10pointer_toERS1_
Lfunc_begin45:
	.loc	7 989 0                 ## /Library/Developer/CommandLineTools/usr/include/c++/v1/memory:989:0
	.cfi_startproc
## %bb.0:                               ## %entry
	pushq	%rbp
	.cfi_def_cfa_offset 16
	.cfi_offset %rbp, -16
	movq	%rsp, %rbp
	.cfi_def_cfa_register %rbp
	subq	$16, %rsp
	movq	%rdi, -8(%rbp)
Ltmp183:
	.loc	7 989 34 prologue_end   ## /Library/Developer/CommandLineTools/usr/include/c++/v1/memory:989:34
	movq	-8(%rbp), %rdi
	.loc	7 989 17 is_stmt 0      ## /Library/Developer/CommandLineTools/usr/include/c++/v1/memory:989:17
	callq	__ZNSt3__1L9addressofIKcEEPT_RS2_
	.loc	7 989 10                ## /Library/Developer/CommandLineTools/usr/include/c++/v1/memory:989:10
	addq	$16, %rsp
	popq	%rbp
	retq
Ltmp184:
Lfunc_end45:
	.cfi_endproc
                                        ## -- End function
	.p2align	4, 0x90         ## -- Begin function _ZNSt3__1L9addressofIKcEEPT_RS2_
__ZNSt3__1L9addressofIKcEEPT_RS2_:      ## @_ZNSt3__1L9addressofIKcEEPT_RS2_
Lfunc_begin46:
	.loc	8 450 0 is_stmt 1       ## /Library/Developer/CommandLineTools/usr/include/c++/v1/type_traits:450:0
	.cfi_startproc
## %bb.0:                               ## %entry
	pushq	%rbp
	.cfi_def_cfa_offset 16
	.cfi_offset %rbp, -16
	movq	%rsp, %rbp
	.cfi_def_cfa_register %rbp
	movq	%rdi, -8(%rbp)
Ltmp185:
	.loc	8 451 32 prologue_end   ## /Library/Developer/CommandLineTools/usr/include/c++/v1/type_traits:451:32
	movq	-8(%rbp), %rax
	.loc	8 451 5 is_stmt 0       ## /Library/Developer/CommandLineTools/usr/include/c++/v1/type_traits:451:5
	popq	%rbp
	retq
Ltmp186:
Lfunc_end46:
	.cfi_endproc
                                        ## -- End function
	.p2align	4, 0x90         ## -- Begin function _ZNKSt3__112basic_stringIcNS_11char_traitsIcEENS_9allocatorIcEEE15__get_long_sizeEv
__ZNKSt3__112basic_stringIcNS_11char_traitsIcEENS_9allocatorIcEEE15__get_long_sizeEv: ## @_ZNKSt3__112basic_stringIcNS_11char_traitsIcEENS_9allocatorIcEEE15__get_long_sizeEv
Lfunc_begin47:
	.loc	6 1468 0 is_stmt 1      ## /Library/Developer/CommandLineTools/usr/include/c++/v1/string:1468:0
	.cfi_startproc
## %bb.0:                               ## %entry
	pushq	%rbp
	.cfi_def_cfa_offset 16
	.cfi_offset %rbp, -16
	movq	%rsp, %rbp
	.cfi_def_cfa_register %rbp
	subq	$16, %rsp
	movq	%rdi, -8(%rbp)
	movq	-8(%rbp), %rdi
Ltmp187:
	.loc	6 1468 22 prologue_end  ## /Library/Developer/CommandLineTools/usr/include/c++/v1/string:1468:22
	callq	__ZNKSt3__117__compressed_pairINS_12basic_stringIcNS_11char_traitsIcEENS_9allocatorIcEEE5__repES5_E5firstEv
	.loc	6 1468 34 is_stmt 0     ## /Library/Developer/CommandLineTools/usr/include/c++/v1/string:1468:34
	movq	8(%rax), %rax
	.loc	6 1468 10               ## /Library/Developer/CommandLineTools/usr/include/c++/v1/string:1468:10
	addq	$16, %rsp
	popq	%rbp
	retq
Ltmp188:
Lfunc_end47:
	.cfi_endproc
                                        ## -- End function
	.p2align	4, 0x90         ## -- Begin function _ZNKSt3__112basic_stringIcNS_11char_traitsIcEENS_9allocatorIcEEE16__get_short_sizeEv
__ZNKSt3__112basic_stringIcNS_11char_traitsIcEENS_9allocatorIcEEE16__get_short_sizeEv: ## @_ZNKSt3__112basic_stringIcNS_11char_traitsIcEENS_9allocatorIcEEE16__get_short_sizeEv
Lfunc_begin48:
	.loc	6 1458 0 is_stmt 1      ## /Library/Developer/CommandLineTools/usr/include/c++/v1/string:1458:0
	.cfi_startproc
## %bb.0:                               ## %entry
	pushq	%rbp
	.cfi_def_cfa_offset 16
	.cfi_offset %rbp, -16
	movq	%rsp, %rbp
	.cfi_def_cfa_register %rbp
	subq	$16, %rsp
	movq	%rdi, -8(%rbp)
	movq	-8(%rbp), %rdi
Ltmp189:
	.loc	6 1458 22 prologue_end  ## /Library/Developer/CommandLineTools/usr/include/c++/v1/string:1458:22
	callq	__ZNKSt3__117__compressed_pairINS_12basic_stringIcNS_11char_traitsIcEENS_9allocatorIcEEE5__repES5_E5firstEv
	.loc	6 1458 17 is_stmt 0     ## /Library/Developer/CommandLineTools/usr/include/c++/v1/string:1458:17
	movzbl	(%rax), %ecx
	.loc	6 1458 42               ## /Library/Developer/CommandLineTools/usr/include/c++/v1/string:1458:42
	sarl	$1, %ecx
	.loc	6 1458 17               ## /Library/Developer/CommandLineTools/usr/include/c++/v1/string:1458:17
	movslq	%ecx, %rax
	.loc	6 1458 10               ## /Library/Developer/CommandLineTools/usr/include/c++/v1/string:1458:10
	addq	$16, %rsp
	popq	%rbp
	retq
Ltmp190:
Lfunc_end48:
	.cfi_endproc
                                        ## -- End function
	.section	__TEXT,__cstring,cstring_literals
L_.str:                                 ## @.str
	.asciz	"hallo"

L_.str.1:                               ## @.str.1
	.asciz	"str size = "
